ARM GAS  C:\Users\jisu8\AppData\Local\Temp\ccZMNT1u.s 			page 1


   1              		.cpu cortex-m0
   2              		.arch armv6s-m
   3              		.fpu softvfp
   4              		.eabi_attribute 20, 1
   5              		.eabi_attribute 21, 1
   6              		.eabi_attribute 23, 3
   7              		.eabi_attribute 24, 1
   8              		.eabi_attribute 25, 1
   9              		.eabi_attribute 26, 1
  10              		.eabi_attribute 30, 1
  11              		.eabi_attribute 34, 0
  12              		.eabi_attribute 18, 4
  13              		.file	"main.c"
  14              		.text
  15              	.Ltext0:
  16              		.cfi_sections	.debug_frame
  17              		.section	.text.MX_GPIO_Init,"ax",%progbits
  18              		.align	1
  19              		.syntax unified
  20              		.code	16
  21              		.thumb_func
  23              	MX_GPIO_Init:
  24              	.LFB46:
  25              		.file 1 "Core/Src/main.c"
   1:Core/Src/main.c **** /* USER CODE BEGIN Header */
   2:Core/Src/main.c **** /**
   3:Core/Src/main.c ****   ******************************************************************************
   4:Core/Src/main.c ****   * @file           : main.c
   5:Core/Src/main.c ****   * @brief          : Main program body
   6:Core/Src/main.c ****   ******************************************************************************
   7:Core/Src/main.c ****   * @attention
   8:Core/Src/main.c ****   *
   9:Core/Src/main.c ****   * Copyright (c) 2022 STMicroelectronics.
  10:Core/Src/main.c ****   * All rights reserved.
  11:Core/Src/main.c ****   *
  12:Core/Src/main.c ****   * This software is licensed under terms that can be found in the LICENSE file
  13:Core/Src/main.c ****   * in the root directory of this software component.
  14:Core/Src/main.c ****   * If no LICENSE file comes with this software, it is provided AS-IS.
  15:Core/Src/main.c ****   *
  16:Core/Src/main.c ****   ******************************************************************************
  17:Core/Src/main.c ****   */
  18:Core/Src/main.c **** /* USER CODE END Header */
  19:Core/Src/main.c **** /* Includes ------------------------------------------------------------------*/
  20:Core/Src/main.c **** #include "main.h"
  21:Core/Src/main.c **** 
  22:Core/Src/main.c **** /* Private includes ----------------------------------------------------------*/
  23:Core/Src/main.c **** /* USER CODE BEGIN Includes */
  24:Core/Src/main.c **** 
  25:Core/Src/main.c **** /* USER CODE END Includes */
  26:Core/Src/main.c **** 
  27:Core/Src/main.c **** /* Private typedef -----------------------------------------------------------*/
  28:Core/Src/main.c **** /* USER CODE BEGIN PTD */
  29:Core/Src/main.c **** 
  30:Core/Src/main.c **** /* USER CODE END PTD */
  31:Core/Src/main.c **** 
  32:Core/Src/main.c **** /* Private define ------------------------------------------------------------*/
  33:Core/Src/main.c **** /* USER CODE BEGIN PD */
ARM GAS  C:\Users\jisu8\AppData\Local\Temp\ccZMNT1u.s 			page 2


  34:Core/Src/main.c **** /* USER CODE END PD */
  35:Core/Src/main.c **** 
  36:Core/Src/main.c **** /* Private macro -------------------------------------------------------------*/
  37:Core/Src/main.c **** /* USER CODE BEGIN PM */
  38:Core/Src/main.c **** 
  39:Core/Src/main.c **** /* USER CODE END PM */
  40:Core/Src/main.c **** 
  41:Core/Src/main.c **** /* Private variables ---------------------------------------------------------*/
  42:Core/Src/main.c **** ADC_HandleTypeDef hadc;
  43:Core/Src/main.c **** 
  44:Core/Src/main.c **** I2C_HandleTypeDef hi2c2;
  45:Core/Src/main.c **** 
  46:Core/Src/main.c **** TIM_HandleTypeDef htim14;
  47:Core/Src/main.c **** TIM_HandleTypeDef htim16;
  48:Core/Src/main.c **** 
  49:Core/Src/main.c **** /* USER CODE BEGIN PV */
  50:Core/Src/main.c **** 
  51:Core/Src/main.c **** /* USER CODE END PV */
  52:Core/Src/main.c **** 
  53:Core/Src/main.c **** /* Private function prototypes -----------------------------------------------*/
  54:Core/Src/main.c **** void SystemClock_Config(void);
  55:Core/Src/main.c **** static void MX_GPIO_Init(void);
  56:Core/Src/main.c **** static void MX_ADC_Init(void);
  57:Core/Src/main.c **** static void MX_I2C2_Init(void);
  58:Core/Src/main.c **** static void MX_TIM14_Init(void);
  59:Core/Src/main.c **** static void MX_TIM16_Init(void);
  60:Core/Src/main.c **** /* USER CODE BEGIN PFP */
  61:Core/Src/main.c **** 
  62:Core/Src/main.c **** /* USER CODE END PFP */
  63:Core/Src/main.c **** 
  64:Core/Src/main.c **** /* Private user code ---------------------------------------------------------*/
  65:Core/Src/main.c **** /* USER CODE BEGIN 0 */
  66:Core/Src/main.c **** 
  67:Core/Src/main.c **** /* USER CODE END 0 */
  68:Core/Src/main.c **** 
  69:Core/Src/main.c **** /**
  70:Core/Src/main.c ****   * @brief  The application entry point.
  71:Core/Src/main.c ****   * @retval int
  72:Core/Src/main.c ****   */
  73:Core/Src/main.c **** int main(void)
  74:Core/Src/main.c **** {
  75:Core/Src/main.c ****   /* USER CODE BEGIN 1 */
  76:Core/Src/main.c **** 
  77:Core/Src/main.c ****   /* USER CODE END 1 */
  78:Core/Src/main.c **** 
  79:Core/Src/main.c ****   /* MCU Configuration--------------------------------------------------------*/
  80:Core/Src/main.c **** 
  81:Core/Src/main.c ****   /* Reset of all peripherals, Initializes the Flash interface and the Systick. */
  82:Core/Src/main.c ****   HAL_Init();
  83:Core/Src/main.c **** 
  84:Core/Src/main.c ****   /* USER CODE BEGIN Init */
  85:Core/Src/main.c **** 
  86:Core/Src/main.c ****   /* USER CODE END Init */
  87:Core/Src/main.c **** 
  88:Core/Src/main.c ****   /* Configure the system clock */
  89:Core/Src/main.c ****   SystemClock_Config();
  90:Core/Src/main.c **** 
ARM GAS  C:\Users\jisu8\AppData\Local\Temp\ccZMNT1u.s 			page 3


  91:Core/Src/main.c ****   /* USER CODE BEGIN SysInit */
  92:Core/Src/main.c **** 
  93:Core/Src/main.c ****   /* USER CODE END SysInit */
  94:Core/Src/main.c **** 
  95:Core/Src/main.c ****   /* Initialize all configured peripherals */
  96:Core/Src/main.c ****   MX_GPIO_Init();
  97:Core/Src/main.c ****   MX_ADC_Init();
  98:Core/Src/main.c ****   MX_I2C2_Init();
  99:Core/Src/main.c ****   MX_TIM14_Init();
 100:Core/Src/main.c ****   MX_TIM16_Init();
 101:Core/Src/main.c ****   /* USER CODE BEGIN 2 */
 102:Core/Src/main.c ****   HAL_TIM_Base_Start_IT(&htim14);
 103:Core/Src/main.c ****   HAL_TIM_Base_Start_IT(&htim16);
 104:Core/Src/main.c ****   Os_Init_Task();
 105:Core/Src/main.c ****   /* USER CODE END 2 */
 106:Core/Src/main.c **** 
 107:Core/Src/main.c ****   /* Infinite loop */
 108:Core/Src/main.c ****   /* USER CODE BEGIN WHILE */
 109:Core/Src/main.c ****   while (1)
 110:Core/Src/main.c ****   {
 111:Core/Src/main.c ****     /* USER CODE END WHILE */
 112:Core/Src/main.c ****     Os_Handler();
 113:Core/Src/main.c ****     /* USER CODE BEGIN 3 */
 114:Core/Src/main.c ****   }
 115:Core/Src/main.c ****   /* USER CODE END 3 */
 116:Core/Src/main.c **** }
 117:Core/Src/main.c **** 
 118:Core/Src/main.c **** /**
 119:Core/Src/main.c ****   * @brief System Clock Configuration
 120:Core/Src/main.c ****   * @retval None
 121:Core/Src/main.c ****   */
 122:Core/Src/main.c **** void SystemClock_Config(void)
 123:Core/Src/main.c **** {
 124:Core/Src/main.c ****   RCC_OscInitTypeDef RCC_OscInitStruct = {0};
 125:Core/Src/main.c ****   RCC_ClkInitTypeDef RCC_ClkInitStruct = {0};
 126:Core/Src/main.c **** 
 127:Core/Src/main.c ****   /** Initializes the RCC Oscillators according to the specified parameters
 128:Core/Src/main.c ****   * in the RCC_OscInitTypeDef structure.
 129:Core/Src/main.c ****   */
 130:Core/Src/main.c ****   RCC_OscInitStruct.OscillatorType = RCC_OSCILLATORTYPE_HSI14|RCC_OSCILLATORTYPE_HSI48;
 131:Core/Src/main.c ****   RCC_OscInitStruct.HSI48State = RCC_HSI48_ON;
 132:Core/Src/main.c ****   RCC_OscInitStruct.HSI14State = RCC_HSI14_ON;
 133:Core/Src/main.c ****   RCC_OscInitStruct.HSI14CalibrationValue = 16;
 134:Core/Src/main.c ****   RCC_OscInitStruct.PLL.PLLState = RCC_PLL_NONE;
 135:Core/Src/main.c ****   if (HAL_RCC_OscConfig(&RCC_OscInitStruct) != HAL_OK)
 136:Core/Src/main.c ****   {
 137:Core/Src/main.c ****     Error_Handler();
 138:Core/Src/main.c ****   }
 139:Core/Src/main.c **** 
 140:Core/Src/main.c ****   /** Initializes the CPU, AHB and APB buses clocks
 141:Core/Src/main.c ****   */
 142:Core/Src/main.c ****   RCC_ClkInitStruct.ClockType = RCC_CLOCKTYPE_HCLK|RCC_CLOCKTYPE_SYSCLK
 143:Core/Src/main.c ****                               |RCC_CLOCKTYPE_PCLK1;
 144:Core/Src/main.c ****   RCC_ClkInitStruct.SYSCLKSource = RCC_SYSCLKSOURCE_HSI48;
 145:Core/Src/main.c ****   RCC_ClkInitStruct.AHBCLKDivider = RCC_SYSCLK_DIV1;
 146:Core/Src/main.c ****   RCC_ClkInitStruct.APB1CLKDivider = RCC_HCLK_DIV1;
 147:Core/Src/main.c **** 
ARM GAS  C:\Users\jisu8\AppData\Local\Temp\ccZMNT1u.s 			page 4


 148:Core/Src/main.c ****   if (HAL_RCC_ClockConfig(&RCC_ClkInitStruct, FLASH_LATENCY_1) != HAL_OK)
 149:Core/Src/main.c ****   {
 150:Core/Src/main.c ****     Error_Handler();
 151:Core/Src/main.c ****   }
 152:Core/Src/main.c **** }
 153:Core/Src/main.c **** 
 154:Core/Src/main.c **** /**
 155:Core/Src/main.c ****   * @brief ADC Initialization Function
 156:Core/Src/main.c ****   * @param None
 157:Core/Src/main.c ****   * @retval None
 158:Core/Src/main.c ****   */
 159:Core/Src/main.c **** static void MX_ADC_Init(void)
 160:Core/Src/main.c **** {
 161:Core/Src/main.c **** 
 162:Core/Src/main.c ****   /* USER CODE BEGIN ADC_Init 0 */
 163:Core/Src/main.c **** 
 164:Core/Src/main.c ****   /* USER CODE END ADC_Init 0 */
 165:Core/Src/main.c **** 
 166:Core/Src/main.c ****   ADC_ChannelConfTypeDef sConfig = {0};
 167:Core/Src/main.c **** 
 168:Core/Src/main.c ****   /* USER CODE BEGIN ADC_Init 1 */
 169:Core/Src/main.c **** 
 170:Core/Src/main.c ****   /* USER CODE END ADC_Init 1 */
 171:Core/Src/main.c **** 
 172:Core/Src/main.c ****   /** Configure the global features of the ADC (Clock, Resolution, Data Alignment and number of con
 173:Core/Src/main.c ****   */
 174:Core/Src/main.c ****   hadc.Instance = ADC1;
 175:Core/Src/main.c ****   hadc.Init.ClockPrescaler = ADC_CLOCK_ASYNC_DIV1;
 176:Core/Src/main.c ****   hadc.Init.Resolution = ADC_RESOLUTION_12B;
 177:Core/Src/main.c ****   hadc.Init.DataAlign = ADC_DATAALIGN_RIGHT;
 178:Core/Src/main.c ****   hadc.Init.ScanConvMode = ADC_SCAN_DIRECTION_FORWARD;
 179:Core/Src/main.c ****   hadc.Init.EOCSelection = ADC_EOC_SINGLE_CONV;
 180:Core/Src/main.c ****   hadc.Init.LowPowerAutoWait = DISABLE;
 181:Core/Src/main.c ****   hadc.Init.LowPowerAutoPowerOff = DISABLE;
 182:Core/Src/main.c ****   hadc.Init.ContinuousConvMode = DISABLE;
 183:Core/Src/main.c ****   hadc.Init.DiscontinuousConvMode = DISABLE;
 184:Core/Src/main.c ****   hadc.Init.ExternalTrigConv = ADC_SOFTWARE_START;
 185:Core/Src/main.c ****   hadc.Init.ExternalTrigConvEdge = ADC_EXTERNALTRIGCONVEDGE_NONE;
 186:Core/Src/main.c ****   hadc.Init.DMAContinuousRequests = DISABLE;
 187:Core/Src/main.c ****   hadc.Init.Overrun = ADC_OVR_DATA_PRESERVED;
 188:Core/Src/main.c ****   if (HAL_ADC_Init(&hadc) != HAL_OK)
 189:Core/Src/main.c ****   {
 190:Core/Src/main.c ****     Error_Handler();
 191:Core/Src/main.c ****   }
 192:Core/Src/main.c **** 
 193:Core/Src/main.c ****   /** Configure for the selected ADC regular channel to be converted.
 194:Core/Src/main.c ****   */
 195:Core/Src/main.c ****   sConfig.Channel = ADC_CHANNEL_0;
 196:Core/Src/main.c ****   sConfig.Rank = ADC_RANK_CHANNEL_NUMBER;
 197:Core/Src/main.c ****   sConfig.SamplingTime = ADC_SAMPLETIME_1CYCLE_5;
 198:Core/Src/main.c ****   if (HAL_ADC_ConfigChannel(&hadc, &sConfig) != HAL_OK)
 199:Core/Src/main.c ****   {
 200:Core/Src/main.c ****     Error_Handler();
 201:Core/Src/main.c ****   }
 202:Core/Src/main.c **** 
 203:Core/Src/main.c ****   /** Configure for the selected ADC regular channel to be converted.
 204:Core/Src/main.c ****   */
ARM GAS  C:\Users\jisu8\AppData\Local\Temp\ccZMNT1u.s 			page 5


 205:Core/Src/main.c ****   sConfig.Channel = ADC_CHANNEL_1;
 206:Core/Src/main.c ****   if (HAL_ADC_ConfigChannel(&hadc, &sConfig) != HAL_OK)
 207:Core/Src/main.c ****   {
 208:Core/Src/main.c ****     Error_Handler();
 209:Core/Src/main.c ****   }
 210:Core/Src/main.c **** 
 211:Core/Src/main.c ****   /** Configure for the selected ADC regular channel to be converted.
 212:Core/Src/main.c ****   */
 213:Core/Src/main.c ****   sConfig.Channel = ADC_CHANNEL_7;
 214:Core/Src/main.c ****   if (HAL_ADC_ConfigChannel(&hadc, &sConfig) != HAL_OK)
 215:Core/Src/main.c ****   {
 216:Core/Src/main.c ****     Error_Handler();
 217:Core/Src/main.c ****   }
 218:Core/Src/main.c ****   /* USER CODE BEGIN ADC_Init 2 */
 219:Core/Src/main.c **** 
 220:Core/Src/main.c ****   /* USER CODE END ADC_Init 2 */
 221:Core/Src/main.c **** 
 222:Core/Src/main.c **** }
 223:Core/Src/main.c **** 
 224:Core/Src/main.c **** /**
 225:Core/Src/main.c ****   * @brief I2C2 Initialization Function
 226:Core/Src/main.c ****   * @param None
 227:Core/Src/main.c ****   * @retval None
 228:Core/Src/main.c ****   */
 229:Core/Src/main.c **** static void MX_I2C2_Init(void)
 230:Core/Src/main.c **** {
 231:Core/Src/main.c **** 
 232:Core/Src/main.c ****   /* USER CODE BEGIN I2C2_Init 0 */
 233:Core/Src/main.c **** 
 234:Core/Src/main.c ****   /* USER CODE END I2C2_Init 0 */
 235:Core/Src/main.c **** 
 236:Core/Src/main.c ****   /* USER CODE BEGIN I2C2_Init 1 */
 237:Core/Src/main.c **** 
 238:Core/Src/main.c ****   /* USER CODE END I2C2_Init 1 */
 239:Core/Src/main.c ****   hi2c2.Instance = I2C2;
 240:Core/Src/main.c ****   hi2c2.Init.Timing = 0x20303E5D;
 241:Core/Src/main.c ****   hi2c2.Init.OwnAddress1 = 0;
 242:Core/Src/main.c ****   hi2c2.Init.AddressingMode = I2C_ADDRESSINGMODE_7BIT;
 243:Core/Src/main.c ****   hi2c2.Init.DualAddressMode = I2C_DUALADDRESS_DISABLE;
 244:Core/Src/main.c ****   hi2c2.Init.OwnAddress2 = 0;
 245:Core/Src/main.c ****   hi2c2.Init.OwnAddress2Masks = I2C_OA2_NOMASK;
 246:Core/Src/main.c ****   hi2c2.Init.GeneralCallMode = I2C_GENERALCALL_DISABLE;
 247:Core/Src/main.c ****   hi2c2.Init.NoStretchMode = I2C_NOSTRETCH_DISABLE;
 248:Core/Src/main.c ****   if (HAL_I2C_Init(&hi2c2) != HAL_OK)
 249:Core/Src/main.c ****   {
 250:Core/Src/main.c ****     Error_Handler();
 251:Core/Src/main.c ****   }
 252:Core/Src/main.c **** 
 253:Core/Src/main.c ****   /** Configure Analogue filter
 254:Core/Src/main.c ****   */
 255:Core/Src/main.c ****   if (HAL_I2CEx_ConfigAnalogFilter(&hi2c2, I2C_ANALOGFILTER_ENABLE) != HAL_OK)
 256:Core/Src/main.c ****   {
 257:Core/Src/main.c ****     Error_Handler();
 258:Core/Src/main.c ****   }
 259:Core/Src/main.c **** 
 260:Core/Src/main.c ****   /** Configure Digital filter
 261:Core/Src/main.c ****   */
ARM GAS  C:\Users\jisu8\AppData\Local\Temp\ccZMNT1u.s 			page 6


 262:Core/Src/main.c ****   if (HAL_I2CEx_ConfigDigitalFilter(&hi2c2, 0) != HAL_OK)
 263:Core/Src/main.c ****   {
 264:Core/Src/main.c ****     Error_Handler();
 265:Core/Src/main.c ****   }
 266:Core/Src/main.c ****   /* USER CODE BEGIN I2C2_Init 2 */
 267:Core/Src/main.c **** 
 268:Core/Src/main.c ****   /* USER CODE END I2C2_Init 2 */
 269:Core/Src/main.c **** 
 270:Core/Src/main.c **** }
 271:Core/Src/main.c **** 
 272:Core/Src/main.c **** /**
 273:Core/Src/main.c ****   * @brief TIM14 Initialization Function
 274:Core/Src/main.c ****   * @param None
 275:Core/Src/main.c ****   * @retval None
 276:Core/Src/main.c ****   */
 277:Core/Src/main.c **** static void MX_TIM14_Init(void)
 278:Core/Src/main.c **** {
 279:Core/Src/main.c **** 
 280:Core/Src/main.c ****   /* USER CODE BEGIN TIM14_Init 0 */
 281:Core/Src/main.c **** 
 282:Core/Src/main.c ****   /* USER CODE END TIM14_Init 0 */
 283:Core/Src/main.c **** 
 284:Core/Src/main.c ****   /* USER CODE BEGIN TIM14_Init 1 */
 285:Core/Src/main.c **** 
 286:Core/Src/main.c ****   /* USER CODE END TIM14_Init 1 */
 287:Core/Src/main.c ****   htim14.Instance = TIM14;
 288:Core/Src/main.c ****   htim14.Init.Prescaler = 47;
 289:Core/Src/main.c ****   htim14.Init.CounterMode = TIM_COUNTERMODE_UP;
 290:Core/Src/main.c ****   htim14.Init.Period = 100;
 291:Core/Src/main.c ****   htim14.Init.ClockDivision = TIM_CLOCKDIVISION_DIV1;
 292:Core/Src/main.c ****   htim14.Init.AutoReloadPreload = TIM_AUTORELOAD_PRELOAD_DISABLE;
 293:Core/Src/main.c ****   if (HAL_TIM_Base_Init(&htim14) != HAL_OK)
 294:Core/Src/main.c ****   {
 295:Core/Src/main.c ****     Error_Handler();
 296:Core/Src/main.c ****   }
 297:Core/Src/main.c ****   /* USER CODE BEGIN TIM14_Init 2 */
 298:Core/Src/main.c **** 
 299:Core/Src/main.c ****   /* USER CODE END TIM14_Init 2 */
 300:Core/Src/main.c **** 
 301:Core/Src/main.c **** }
 302:Core/Src/main.c **** 
 303:Core/Src/main.c **** /**
 304:Core/Src/main.c ****   * @brief TIM16 Initialization Function
 305:Core/Src/main.c ****   * @param None
 306:Core/Src/main.c ****   * @retval None
 307:Core/Src/main.c ****   */
 308:Core/Src/main.c **** static void MX_TIM16_Init(void)
 309:Core/Src/main.c **** {
 310:Core/Src/main.c **** 
 311:Core/Src/main.c ****   /* USER CODE BEGIN TIM16_Init 0 */
 312:Core/Src/main.c **** 
 313:Core/Src/main.c ****   /* USER CODE END TIM16_Init 0 */
 314:Core/Src/main.c **** 
 315:Core/Src/main.c ****   /* USER CODE BEGIN TIM16_Init 1 */
 316:Core/Src/main.c **** 
 317:Core/Src/main.c ****   /* USER CODE END TIM16_Init 1 */
 318:Core/Src/main.c ****   htim16.Instance = TIM16;
ARM GAS  C:\Users\jisu8\AppData\Local\Temp\ccZMNT1u.s 			page 7


 319:Core/Src/main.c ****   htim16.Init.Prescaler = 47;
 320:Core/Src/main.c ****   htim16.Init.CounterMode = TIM_COUNTERMODE_UP;
 321:Core/Src/main.c ****   htim16.Init.Period = 10000;
 322:Core/Src/main.c ****   htim16.Init.ClockDivision = TIM_CLOCKDIVISION_DIV1;
 323:Core/Src/main.c ****   htim16.Init.RepetitionCounter = 0;
 324:Core/Src/main.c ****   htim16.Init.AutoReloadPreload = TIM_AUTORELOAD_PRELOAD_DISABLE;
 325:Core/Src/main.c ****   if (HAL_TIM_Base_Init(&htim16) != HAL_OK)
 326:Core/Src/main.c ****   {
 327:Core/Src/main.c ****     Error_Handler();
 328:Core/Src/main.c ****   }
 329:Core/Src/main.c ****   /* USER CODE BEGIN TIM16_Init 2 */
 330:Core/Src/main.c **** 
 331:Core/Src/main.c ****   /* USER CODE END TIM16_Init 2 */
 332:Core/Src/main.c **** 
 333:Core/Src/main.c **** }
 334:Core/Src/main.c **** 
 335:Core/Src/main.c **** /**
 336:Core/Src/main.c ****   * @brief GPIO Initialization Function
 337:Core/Src/main.c ****   * @param None
 338:Core/Src/main.c ****   * @retval None
 339:Core/Src/main.c ****   */
 340:Core/Src/main.c **** static void MX_GPIO_Init(void)
 341:Core/Src/main.c **** {
  26              		.loc 1 341 1 view -0
  27              		.cfi_startproc
  28              		@ args = 0, pretend = 0, frame = 32
  29              		@ frame_needed = 0, uses_anonymous_args = 0
  30 0000 F0B5     		push	{r4, r5, r6, r7, lr}
  31              	.LCFI0:
  32              		.cfi_def_cfa_offset 20
  33              		.cfi_offset 4, -20
  34              		.cfi_offset 5, -16
  35              		.cfi_offset 6, -12
  36              		.cfi_offset 7, -8
  37              		.cfi_offset 14, -4
  38 0002 DE46     		mov	lr, fp
  39 0004 5746     		mov	r7, r10
  40 0006 4E46     		mov	r6, r9
  41 0008 4546     		mov	r5, r8
  42 000a E0B5     		push	{r5, r6, r7, lr}
  43              	.LCFI1:
  44              		.cfi_def_cfa_offset 36
  45              		.cfi_offset 8, -36
  46              		.cfi_offset 9, -32
  47              		.cfi_offset 10, -28
  48              		.cfi_offset 11, -24
  49 000c 89B0     		sub	sp, sp, #36
  50              	.LCFI2:
  51              		.cfi_def_cfa_offset 72
 342:Core/Src/main.c ****   GPIO_InitTypeDef GPIO_InitStruct = {0};
  52              		.loc 1 342 3 view .LVU1
  53              		.loc 1 342 20 is_stmt 0 view .LVU2
  54 000e 1422     		movs	r2, #20
  55 0010 0021     		movs	r1, #0
  56 0012 03A8     		add	r0, sp, #12
  57 0014 FFF7FEFF 		bl	memset
  58              	.LVL0:
ARM GAS  C:\Users\jisu8\AppData\Local\Temp\ccZMNT1u.s 			page 8


 343:Core/Src/main.c **** 
 344:Core/Src/main.c ****   /* GPIO Ports Clock Enable */
 345:Core/Src/main.c ****   __HAL_RCC_GPIOC_CLK_ENABLE();
  59              		.loc 1 345 3 is_stmt 1 view .LVU3
  60              	.LBB4:
  61              		.loc 1 345 3 view .LVU4
  62              		.loc 1 345 3 view .LVU5
  63 0018 464B     		ldr	r3, .L2
  64 001a 5969     		ldr	r1, [r3, #20]
  65 001c 8020     		movs	r0, #128
  66 001e 0003     		lsls	r0, r0, #12
  67 0020 0143     		orrs	r1, r0
  68 0022 5961     		str	r1, [r3, #20]
  69              		.loc 1 345 3 view .LVU6
  70 0024 5A69     		ldr	r2, [r3, #20]
  71 0026 0240     		ands	r2, r0
  72 0028 0092     		str	r2, [sp]
  73              		.loc 1 345 3 view .LVU7
  74 002a 009A     		ldr	r2, [sp]
  75              	.LBE4:
  76              		.loc 1 345 3 view .LVU8
 346:Core/Src/main.c ****   __HAL_RCC_GPIOA_CLK_ENABLE();
  77              		.loc 1 346 3 view .LVU9
  78              	.LBB5:
  79              		.loc 1 346 3 view .LVU10
  80              		.loc 1 346 3 view .LVU11
  81 002c 5969     		ldr	r1, [r3, #20]
  82 002e 8020     		movs	r0, #128
  83 0030 8002     		lsls	r0, r0, #10
  84 0032 0143     		orrs	r1, r0
  85 0034 5961     		str	r1, [r3, #20]
  86              		.loc 1 346 3 view .LVU12
  87 0036 5A69     		ldr	r2, [r3, #20]
  88 0038 0240     		ands	r2, r0
  89 003a 0192     		str	r2, [sp, #4]
  90              		.loc 1 346 3 view .LVU13
  91 003c 019A     		ldr	r2, [sp, #4]
  92              	.LBE5:
  93              		.loc 1 346 3 view .LVU14
 347:Core/Src/main.c ****   __HAL_RCC_GPIOB_CLK_ENABLE();
  94              		.loc 1 347 3 view .LVU15
  95              	.LBB6:
  96              		.loc 1 347 3 view .LVU16
  97              		.loc 1 347 3 view .LVU17
  98 003e 5A69     		ldr	r2, [r3, #20]
  99 0040 8021     		movs	r1, #128
 100 0042 C902     		lsls	r1, r1, #11
 101 0044 0A43     		orrs	r2, r1
 102 0046 5A61     		str	r2, [r3, #20]
 103              		.loc 1 347 3 view .LVU18
 104 0048 5B69     		ldr	r3, [r3, #20]
 105 004a 0B40     		ands	r3, r1
 106 004c 0293     		str	r3, [sp, #8]
 107              		.loc 1 347 3 view .LVU19
 108 004e 029B     		ldr	r3, [sp, #8]
 109              	.LBE6:
 110              		.loc 1 347 3 view .LVU20
ARM GAS  C:\Users\jisu8\AppData\Local\Temp\ccZMNT1u.s 			page 9


 348:Core/Src/main.c **** 
 349:Core/Src/main.c ****   /*Configure GPIO pin Output Level */
 350:Core/Src/main.c ****   HAL_GPIO_WritePin(GPIOC, GPIO_PIN_13|GPIO_PIN_14|GPIO_PIN_4|GPIO_PIN_5
 111              		.loc 1 350 3 view .LVU21
 112 0050 394C     		ldr	r4, .L2+4
 113 0052 3A4B     		ldr	r3, .L2+8
 114 0054 9846     		mov	r8, r3
 115 0056 0022     		movs	r2, #0
 116 0058 2100     		movs	r1, r4
 117 005a 1800     		movs	r0, r3
 118 005c FFF7FEFF 		bl	HAL_GPIO_WritePin
 119              	.LVL1:
 351:Core/Src/main.c ****                           |GPIO_PIN_6|GPIO_PIN_7|GPIO_PIN_8|GPIO_PIN_9
 352:Core/Src/main.c ****                           |GPIO_PIN_10|GPIO_PIN_11|GPIO_PIN_12, GPIO_PIN_RESET);
 353:Core/Src/main.c **** 
 354:Core/Src/main.c ****   /*Configure GPIO pin Output Level */
 355:Core/Src/main.c ****   HAL_GPIO_WritePin(GPIOA, GPIO_PIN_6|GPIO_PIN_8|GPIO_PIN_9, GPIO_PIN_RESET);
 120              		.loc 1 355 3 view .LVU22
 121 0060 D023     		movs	r3, #208
 122 0062 9B00     		lsls	r3, r3, #2
 123 0064 9A46     		mov	r10, r3
 124 0066 9027     		movs	r7, #144
 125 0068 FF05     		lsls	r7, r7, #23
 126 006a 0022     		movs	r2, #0
 127 006c 1900     		movs	r1, r3
 128 006e 3800     		movs	r0, r7
 129 0070 FFF7FEFF 		bl	HAL_GPIO_WritePin
 130              	.LVL2:
 356:Core/Src/main.c **** 
 357:Core/Src/main.c ****   /*Configure GPIO pin Output Level */
 358:Core/Src/main.c ****   HAL_GPIO_WritePin(GPIOB, GPIO_PIN_3|GPIO_PIN_4|GPIO_PIN_5|GPIO_PIN_6
 131              		.loc 1 358 3 view .LVU23
 132 0074 FE23     		movs	r3, #254
 133 0076 9B00     		lsls	r3, r3, #2
 134 0078 9946     		mov	r9, r3
 135 007a 314D     		ldr	r5, .L2+12
 136 007c 0022     		movs	r2, #0
 137 007e 1900     		movs	r1, r3
 138 0080 2800     		movs	r0, r5
 139 0082 FFF7FEFF 		bl	HAL_GPIO_WritePin
 140              	.LVL3:
 359:Core/Src/main.c ****                           |GPIO_PIN_7|GPIO_PIN_8|GPIO_PIN_9, GPIO_PIN_RESET);
 360:Core/Src/main.c **** 
 361:Core/Src/main.c ****   /*Configure GPIO pins : PC13 PC14 PC4 PC5
 362:Core/Src/main.c ****                            PC6 PC7 PC8 PC9
 363:Core/Src/main.c ****                            PC10 PC11 PC12 */
 364:Core/Src/main.c ****   GPIO_InitStruct.Pin = GPIO_PIN_13|GPIO_PIN_14|GPIO_PIN_4|GPIO_PIN_5
 141              		.loc 1 364 3 view .LVU24
 142              		.loc 1 364 23 is_stmt 0 view .LVU25
 143 0086 0394     		str	r4, [sp, #12]
 365:Core/Src/main.c ****                           |GPIO_PIN_6|GPIO_PIN_7|GPIO_PIN_8|GPIO_PIN_9
 366:Core/Src/main.c ****                           |GPIO_PIN_10|GPIO_PIN_11|GPIO_PIN_12;
 367:Core/Src/main.c ****   GPIO_InitStruct.Mode = GPIO_MODE_OUTPUT_PP;
 144              		.loc 1 367 3 is_stmt 1 view .LVU26
 145              		.loc 1 367 24 is_stmt 0 view .LVU27
 146 0088 0126     		movs	r6, #1
 147 008a 0496     		str	r6, [sp, #16]
ARM GAS  C:\Users\jisu8\AppData\Local\Temp\ccZMNT1u.s 			page 10


 368:Core/Src/main.c ****   GPIO_InitStruct.Pull = GPIO_NOPULL;
 148              		.loc 1 368 3 is_stmt 1 view .LVU28
 149              		.loc 1 368 24 is_stmt 0 view .LVU29
 150 008c 0024     		movs	r4, #0
 151 008e 0594     		str	r4, [sp, #20]
 369:Core/Src/main.c ****   GPIO_InitStruct.Speed = GPIO_SPEED_FREQ_LOW;
 152              		.loc 1 369 3 is_stmt 1 view .LVU30
 153              		.loc 1 369 25 is_stmt 0 view .LVU31
 154 0090 0694     		str	r4, [sp, #24]
 370:Core/Src/main.c ****   HAL_GPIO_Init(GPIOC, &GPIO_InitStruct);
 155              		.loc 1 370 3 is_stmt 1 view .LVU32
 156 0092 03A9     		add	r1, sp, #12
 157 0094 4046     		mov	r0, r8
 158 0096 FFF7FEFF 		bl	HAL_GPIO_Init
 159              	.LVL4:
 371:Core/Src/main.c **** 
 372:Core/Src/main.c ****   /*Configure GPIO pins : PC0 PC1 PC2 PC3 */
 373:Core/Src/main.c ****   GPIO_InitStruct.Pin = GPIO_PIN_0|GPIO_PIN_1|GPIO_PIN_2|GPIO_PIN_3;
 160              		.loc 1 373 3 view .LVU33
 161              		.loc 1 373 23 is_stmt 0 view .LVU34
 162 009a 0F23     		movs	r3, #15
 163 009c 0393     		str	r3, [sp, #12]
 374:Core/Src/main.c ****   GPIO_InitStruct.Mode = GPIO_MODE_INPUT;
 164              		.loc 1 374 3 is_stmt 1 view .LVU35
 165              		.loc 1 374 24 is_stmt 0 view .LVU36
 166 009e 0494     		str	r4, [sp, #16]
 375:Core/Src/main.c ****   GPIO_InitStruct.Pull = GPIO_NOPULL;
 167              		.loc 1 375 3 is_stmt 1 view .LVU37
 168              		.loc 1 375 24 is_stmt 0 view .LVU38
 169 00a0 0594     		str	r4, [sp, #20]
 376:Core/Src/main.c ****   HAL_GPIO_Init(GPIOC, &GPIO_InitStruct);
 170              		.loc 1 376 3 is_stmt 1 view .LVU39
 171 00a2 03A9     		add	r1, sp, #12
 172 00a4 4046     		mov	r0, r8
 173 00a6 FFF7FEFF 		bl	HAL_GPIO_Init
 174              	.LVL5:
 377:Core/Src/main.c **** 
 378:Core/Src/main.c ****   /*Configure GPIO pins : PA2 PA3 */
 379:Core/Src/main.c ****   GPIO_InitStruct.Pin = GPIO_PIN_2|GPIO_PIN_3;
 175              		.loc 1 379 3 view .LVU40
 176              		.loc 1 379 23 is_stmt 0 view .LVU41
 177 00aa 0C23     		movs	r3, #12
 178 00ac 0393     		str	r3, [sp, #12]
 380:Core/Src/main.c ****   GPIO_InitStruct.Mode = GPIO_MODE_AF_PP;
 179              		.loc 1 380 3 is_stmt 1 view .LVU42
 180              		.loc 1 380 24 is_stmt 0 view .LVU43
 181 00ae 0A3B     		subs	r3, r3, #10
 182 00b0 9B46     		mov	fp, r3
 183 00b2 0493     		str	r3, [sp, #16]
 381:Core/Src/main.c ****   GPIO_InitStruct.Pull = GPIO_NOPULL;
 184              		.loc 1 381 3 is_stmt 1 view .LVU44
 185              		.loc 1 381 24 is_stmt 0 view .LVU45
 186 00b4 0594     		str	r4, [sp, #20]
 382:Core/Src/main.c ****   GPIO_InitStruct.Speed = GPIO_SPEED_FREQ_HIGH;
 187              		.loc 1 382 3 is_stmt 1 view .LVU46
 188              		.loc 1 382 25 is_stmt 0 view .LVU47
 189 00b6 0133     		adds	r3, r3, #1
ARM GAS  C:\Users\jisu8\AppData\Local\Temp\ccZMNT1u.s 			page 11


 190 00b8 9846     		mov	r8, r3
 191 00ba 0693     		str	r3, [sp, #24]
 383:Core/Src/main.c ****   GPIO_InitStruct.Alternate = GPIO_AF1_USART2;
 192              		.loc 1 383 3 is_stmt 1 view .LVU48
 193              		.loc 1 383 29 is_stmt 0 view .LVU49
 194 00bc 0796     		str	r6, [sp, #28]
 384:Core/Src/main.c ****   HAL_GPIO_Init(GPIOA, &GPIO_InitStruct);
 195              		.loc 1 384 3 is_stmt 1 view .LVU50
 196 00be 03A9     		add	r1, sp, #12
 197 00c0 3800     		movs	r0, r7
 198 00c2 FFF7FEFF 		bl	HAL_GPIO_Init
 199              	.LVL6:
 385:Core/Src/main.c **** 
 386:Core/Src/main.c ****   /*Configure GPIO pins : PA6 PA8 PA9 */
 387:Core/Src/main.c ****   GPIO_InitStruct.Pin = GPIO_PIN_6|GPIO_PIN_8|GPIO_PIN_9;
 200              		.loc 1 387 3 view .LVU51
 201              		.loc 1 387 23 is_stmt 0 view .LVU52
 202 00c6 5346     		mov	r3, r10
 203 00c8 0393     		str	r3, [sp, #12]
 388:Core/Src/main.c ****   GPIO_InitStruct.Mode = GPIO_MODE_OUTPUT_PP;
 204              		.loc 1 388 3 is_stmt 1 view .LVU53
 205              		.loc 1 388 24 is_stmt 0 view .LVU54
 206 00ca 0496     		str	r6, [sp, #16]
 389:Core/Src/main.c ****   GPIO_InitStruct.Pull = GPIO_NOPULL;
 207              		.loc 1 389 3 is_stmt 1 view .LVU55
 208              		.loc 1 389 24 is_stmt 0 view .LVU56
 209 00cc 0594     		str	r4, [sp, #20]
 390:Core/Src/main.c ****   GPIO_InitStruct.Speed = GPIO_SPEED_FREQ_LOW;
 210              		.loc 1 390 3 is_stmt 1 view .LVU57
 211              		.loc 1 390 25 is_stmt 0 view .LVU58
 212 00ce 0694     		str	r4, [sp, #24]
 391:Core/Src/main.c ****   HAL_GPIO_Init(GPIOA, &GPIO_InitStruct);
 213              		.loc 1 391 3 is_stmt 1 view .LVU59
 214 00d0 03A9     		add	r1, sp, #12
 215 00d2 3800     		movs	r0, r7
 216 00d4 FFF7FEFF 		bl	HAL_GPIO_Init
 217              	.LVL7:
 392:Core/Src/main.c **** 
 393:Core/Src/main.c ****   /*Configure GPIO pins : PB0 PB1 PB2 PB12 */
 394:Core/Src/main.c ****   GPIO_InitStruct.Pin = GPIO_PIN_0|GPIO_PIN_1|GPIO_PIN_2|GPIO_PIN_12;
 218              		.loc 1 394 3 view .LVU60
 219              		.loc 1 394 23 is_stmt 0 view .LVU61
 220 00d8 1A4B     		ldr	r3, .L2+16
 221 00da 0393     		str	r3, [sp, #12]
 395:Core/Src/main.c ****   GPIO_InitStruct.Mode = GPIO_MODE_INPUT;
 222              		.loc 1 395 3 is_stmt 1 view .LVU62
 223              		.loc 1 395 24 is_stmt 0 view .LVU63
 224 00dc 0494     		str	r4, [sp, #16]
 396:Core/Src/main.c ****   GPIO_InitStruct.Pull = GPIO_NOPULL;
 225              		.loc 1 396 3 is_stmt 1 view .LVU64
 226              		.loc 1 396 24 is_stmt 0 view .LVU65
 227 00de 0594     		str	r4, [sp, #20]
 397:Core/Src/main.c ****   HAL_GPIO_Init(GPIOB, &GPIO_InitStruct);
 228              		.loc 1 397 3 is_stmt 1 view .LVU66
 229 00e0 03A9     		add	r1, sp, #12
 230 00e2 2800     		movs	r0, r5
 231 00e4 FFF7FEFF 		bl	HAL_GPIO_Init
ARM GAS  C:\Users\jisu8\AppData\Local\Temp\ccZMNT1u.s 			page 12


 232              	.LVL8:
 398:Core/Src/main.c **** 
 399:Core/Src/main.c ****   /*Configure GPIO pins : PB13 PB14 PB15 */
 400:Core/Src/main.c ****   GPIO_InitStruct.Pin = GPIO_PIN_13|GPIO_PIN_14|GPIO_PIN_15;
 233              		.loc 1 400 3 view .LVU67
 234              		.loc 1 400 23 is_stmt 0 view .LVU68
 235 00e8 E023     		movs	r3, #224
 236 00ea 1B02     		lsls	r3, r3, #8
 237 00ec 0393     		str	r3, [sp, #12]
 401:Core/Src/main.c ****   GPIO_InitStruct.Mode = GPIO_MODE_AF_PP;
 238              		.loc 1 401 3 is_stmt 1 view .LVU69
 239              		.loc 1 401 24 is_stmt 0 view .LVU70
 240 00ee 5B46     		mov	r3, fp
 241 00f0 0493     		str	r3, [sp, #16]
 402:Core/Src/main.c ****   GPIO_InitStruct.Pull = GPIO_NOPULL;
 242              		.loc 1 402 3 is_stmt 1 view .LVU71
 243              		.loc 1 402 24 is_stmt 0 view .LVU72
 244 00f2 0594     		str	r4, [sp, #20]
 403:Core/Src/main.c ****   GPIO_InitStruct.Speed = GPIO_SPEED_FREQ_HIGH;
 245              		.loc 1 403 3 is_stmt 1 view .LVU73
 246              		.loc 1 403 25 is_stmt 0 view .LVU74
 247 00f4 4346     		mov	r3, r8
 248 00f6 0693     		str	r3, [sp, #24]
 404:Core/Src/main.c ****   GPIO_InitStruct.Alternate = GPIO_AF0_SPI2;
 249              		.loc 1 404 3 is_stmt 1 view .LVU75
 250              		.loc 1 404 29 is_stmt 0 view .LVU76
 251 00f8 0794     		str	r4, [sp, #28]
 405:Core/Src/main.c ****   HAL_GPIO_Init(GPIOB, &GPIO_InitStruct);
 252              		.loc 1 405 3 is_stmt 1 view .LVU77
 253 00fa 03A9     		add	r1, sp, #12
 254 00fc 2800     		movs	r0, r5
 255 00fe FFF7FEFF 		bl	HAL_GPIO_Init
 256              	.LVL9:
 406:Core/Src/main.c **** 
 407:Core/Src/main.c ****   /*Configure GPIO pin : PA15 */
 408:Core/Src/main.c ****   GPIO_InitStruct.Pin = GPIO_PIN_15;
 257              		.loc 1 408 3 view .LVU78
 258              		.loc 1 408 23 is_stmt 0 view .LVU79
 259 0102 8023     		movs	r3, #128
 260 0104 1B02     		lsls	r3, r3, #8
 261 0106 0393     		str	r3, [sp, #12]
 409:Core/Src/main.c ****   GPIO_InitStruct.Mode = GPIO_MODE_INPUT;
 262              		.loc 1 409 3 is_stmt 1 view .LVU80
 263              		.loc 1 409 24 is_stmt 0 view .LVU81
 264 0108 0494     		str	r4, [sp, #16]
 410:Core/Src/main.c ****   GPIO_InitStruct.Pull = GPIO_NOPULL;
 265              		.loc 1 410 3 is_stmt 1 view .LVU82
 266              		.loc 1 410 24 is_stmt 0 view .LVU83
 267 010a 0594     		str	r4, [sp, #20]
 411:Core/Src/main.c ****   HAL_GPIO_Init(GPIOA, &GPIO_InitStruct);
 268              		.loc 1 411 3 is_stmt 1 view .LVU84
 269 010c 03A9     		add	r1, sp, #12
 270 010e 3800     		movs	r0, r7
 271 0110 FFF7FEFF 		bl	HAL_GPIO_Init
 272              	.LVL10:
 412:Core/Src/main.c **** 
 413:Core/Src/main.c ****   /*Configure GPIO pins : PB3 PB4 PB5 PB6
ARM GAS  C:\Users\jisu8\AppData\Local\Temp\ccZMNT1u.s 			page 13


 414:Core/Src/main.c ****                            PB7 PB8 PB9 */
 415:Core/Src/main.c ****   GPIO_InitStruct.Pin = GPIO_PIN_3|GPIO_PIN_4|GPIO_PIN_5|GPIO_PIN_6
 273              		.loc 1 415 3 view .LVU85
 274              		.loc 1 415 23 is_stmt 0 view .LVU86
 275 0114 4B46     		mov	r3, r9
 276 0116 0393     		str	r3, [sp, #12]
 416:Core/Src/main.c ****                           |GPIO_PIN_7|GPIO_PIN_8|GPIO_PIN_9;
 417:Core/Src/main.c ****   GPIO_InitStruct.Mode = GPIO_MODE_OUTPUT_PP;
 277              		.loc 1 417 3 is_stmt 1 view .LVU87
 278              		.loc 1 417 24 is_stmt 0 view .LVU88
 279 0118 0496     		str	r6, [sp, #16]
 418:Core/Src/main.c ****   GPIO_InitStruct.Pull = GPIO_NOPULL;
 280              		.loc 1 418 3 is_stmt 1 view .LVU89
 281              		.loc 1 418 24 is_stmt 0 view .LVU90
 282 011a 0594     		str	r4, [sp, #20]
 419:Core/Src/main.c ****   GPIO_InitStruct.Speed = GPIO_SPEED_FREQ_LOW;
 283              		.loc 1 419 3 is_stmt 1 view .LVU91
 284              		.loc 1 419 25 is_stmt 0 view .LVU92
 285 011c 0694     		str	r4, [sp, #24]
 420:Core/Src/main.c ****   HAL_GPIO_Init(GPIOB, &GPIO_InitStruct);
 286              		.loc 1 420 3 is_stmt 1 view .LVU93
 287 011e 03A9     		add	r1, sp, #12
 288 0120 2800     		movs	r0, r5
 289 0122 FFF7FEFF 		bl	HAL_GPIO_Init
 290              	.LVL11:
 421:Core/Src/main.c **** 
 422:Core/Src/main.c **** }
 291              		.loc 1 422 1 is_stmt 0 view .LVU94
 292 0126 09B0     		add	sp, sp, #36
 293              		@ sp needed
 294 0128 F0BC     		pop	{r4, r5, r6, r7}
 295 012a BB46     		mov	fp, r7
 296 012c B246     		mov	r10, r6
 297 012e A946     		mov	r9, r5
 298 0130 A046     		mov	r8, r4
 299 0132 F0BD     		pop	{r4, r5, r6, r7, pc}
 300              	.L3:
 301              		.align	2
 302              	.L2:
 303 0134 00100240 		.word	1073876992
 304 0138 F07F0000 		.word	32752
 305 013c 00080048 		.word	1207961600
 306 0140 00040048 		.word	1207960576
 307 0144 07100000 		.word	4103
 308              		.cfi_endproc
 309              	.LFE46:
 311              		.section	.text.Error_Handler,"ax",%progbits
 312              		.align	1
 313              		.global	Error_Handler
 314              		.syntax unified
 315              		.code	16
 316              		.thumb_func
 318              	Error_Handler:
 319              	.LFB47:
 423:Core/Src/main.c **** 
 424:Core/Src/main.c **** /* USER CODE BEGIN 4 */
 425:Core/Src/main.c **** 
ARM GAS  C:\Users\jisu8\AppData\Local\Temp\ccZMNT1u.s 			page 14


 426:Core/Src/main.c **** /* USER CODE END 4 */
 427:Core/Src/main.c **** 
 428:Core/Src/main.c **** /**
 429:Core/Src/main.c ****   * @brief  This function is executed in case of error occurrence.
 430:Core/Src/main.c ****   * @retval None
 431:Core/Src/main.c ****   */
 432:Core/Src/main.c **** void Error_Handler(void)
 433:Core/Src/main.c **** {
 320              		.loc 1 433 1 is_stmt 1 view -0
 321              		.cfi_startproc
 322              		@ Volatile: function does not return.
 323              		@ args = 0, pretend = 0, frame = 0
 324              		@ frame_needed = 0, uses_anonymous_args = 0
 325              		@ link register save eliminated.
 434:Core/Src/main.c ****   /* USER CODE BEGIN Error_Handler_Debug */
 435:Core/Src/main.c ****   /* User can add his own implementation to report the HAL error return state */
 436:Core/Src/main.c ****   __disable_irq();
 326              		.loc 1 436 3 view .LVU96
 327              	.LBB7:
 328              	.LBI7:
 329              		.file 2 "Drivers/CMSIS/Include/cmsis_gcc.h"
   1:Drivers/CMSIS/Include/cmsis_gcc.h **** /**************************************************************************//**
   2:Drivers/CMSIS/Include/cmsis_gcc.h ****  * @file     cmsis_gcc.h
   3:Drivers/CMSIS/Include/cmsis_gcc.h ****  * @brief    CMSIS compiler GCC header file
   4:Drivers/CMSIS/Include/cmsis_gcc.h ****  * @version  V5.0.4
   5:Drivers/CMSIS/Include/cmsis_gcc.h ****  * @date     09. April 2018
   6:Drivers/CMSIS/Include/cmsis_gcc.h ****  ******************************************************************************/
   7:Drivers/CMSIS/Include/cmsis_gcc.h **** /*
   8:Drivers/CMSIS/Include/cmsis_gcc.h ****  * Copyright (c) 2009-2018 Arm Limited. All rights reserved.
   9:Drivers/CMSIS/Include/cmsis_gcc.h ****  *
  10:Drivers/CMSIS/Include/cmsis_gcc.h ****  * SPDX-License-Identifier: Apache-2.0
  11:Drivers/CMSIS/Include/cmsis_gcc.h ****  *
  12:Drivers/CMSIS/Include/cmsis_gcc.h ****  * Licensed under the Apache License, Version 2.0 (the License); you may
  13:Drivers/CMSIS/Include/cmsis_gcc.h ****  * not use this file except in compliance with the License.
  14:Drivers/CMSIS/Include/cmsis_gcc.h ****  * You may obtain a copy of the License at
  15:Drivers/CMSIS/Include/cmsis_gcc.h ****  *
  16:Drivers/CMSIS/Include/cmsis_gcc.h ****  * www.apache.org/licenses/LICENSE-2.0
  17:Drivers/CMSIS/Include/cmsis_gcc.h ****  *
  18:Drivers/CMSIS/Include/cmsis_gcc.h ****  * Unless required by applicable law or agreed to in writing, software
  19:Drivers/CMSIS/Include/cmsis_gcc.h ****  * distributed under the License is distributed on an AS IS BASIS, WITHOUT
  20:Drivers/CMSIS/Include/cmsis_gcc.h ****  * WARRANTIES OR CONDITIONS OF ANY KIND, either express or implied.
  21:Drivers/CMSIS/Include/cmsis_gcc.h ****  * See the License for the specific language governing permissions and
  22:Drivers/CMSIS/Include/cmsis_gcc.h ****  * limitations under the License.
  23:Drivers/CMSIS/Include/cmsis_gcc.h ****  */
  24:Drivers/CMSIS/Include/cmsis_gcc.h **** 
  25:Drivers/CMSIS/Include/cmsis_gcc.h **** #ifndef __CMSIS_GCC_H
  26:Drivers/CMSIS/Include/cmsis_gcc.h **** #define __CMSIS_GCC_H
  27:Drivers/CMSIS/Include/cmsis_gcc.h **** 
  28:Drivers/CMSIS/Include/cmsis_gcc.h **** /* ignore some GCC warnings */
  29:Drivers/CMSIS/Include/cmsis_gcc.h **** #pragma GCC diagnostic push
  30:Drivers/CMSIS/Include/cmsis_gcc.h **** #pragma GCC diagnostic ignored "-Wsign-conversion"
  31:Drivers/CMSIS/Include/cmsis_gcc.h **** #pragma GCC diagnostic ignored "-Wconversion"
  32:Drivers/CMSIS/Include/cmsis_gcc.h **** #pragma GCC diagnostic ignored "-Wunused-parameter"
  33:Drivers/CMSIS/Include/cmsis_gcc.h **** 
  34:Drivers/CMSIS/Include/cmsis_gcc.h **** /* Fallback for __has_builtin */
  35:Drivers/CMSIS/Include/cmsis_gcc.h **** #ifndef __has_builtin
  36:Drivers/CMSIS/Include/cmsis_gcc.h ****   #define __has_builtin(x) (0)
ARM GAS  C:\Users\jisu8\AppData\Local\Temp\ccZMNT1u.s 			page 15


  37:Drivers/CMSIS/Include/cmsis_gcc.h **** #endif
  38:Drivers/CMSIS/Include/cmsis_gcc.h **** 
  39:Drivers/CMSIS/Include/cmsis_gcc.h **** /* CMSIS compiler specific defines */
  40:Drivers/CMSIS/Include/cmsis_gcc.h **** #ifndef   __ASM
  41:Drivers/CMSIS/Include/cmsis_gcc.h ****   #define __ASM                                  __asm
  42:Drivers/CMSIS/Include/cmsis_gcc.h **** #endif
  43:Drivers/CMSIS/Include/cmsis_gcc.h **** #ifndef   __INLINE
  44:Drivers/CMSIS/Include/cmsis_gcc.h ****   #define __INLINE                               inline
  45:Drivers/CMSIS/Include/cmsis_gcc.h **** #endif
  46:Drivers/CMSIS/Include/cmsis_gcc.h **** #ifndef   __STATIC_INLINE
  47:Drivers/CMSIS/Include/cmsis_gcc.h ****   #define __STATIC_INLINE                        static inline
  48:Drivers/CMSIS/Include/cmsis_gcc.h **** #endif
  49:Drivers/CMSIS/Include/cmsis_gcc.h **** #ifndef   __STATIC_FORCEINLINE                 
  50:Drivers/CMSIS/Include/cmsis_gcc.h ****   #define __STATIC_FORCEINLINE                   __attribute__((always_inline)) static inline
  51:Drivers/CMSIS/Include/cmsis_gcc.h **** #endif                                           
  52:Drivers/CMSIS/Include/cmsis_gcc.h **** #ifndef   __NO_RETURN
  53:Drivers/CMSIS/Include/cmsis_gcc.h ****   #define __NO_RETURN                            __attribute__((__noreturn__))
  54:Drivers/CMSIS/Include/cmsis_gcc.h **** #endif
  55:Drivers/CMSIS/Include/cmsis_gcc.h **** #ifndef   __USED
  56:Drivers/CMSIS/Include/cmsis_gcc.h ****   #define __USED                                 __attribute__((used))
  57:Drivers/CMSIS/Include/cmsis_gcc.h **** #endif
  58:Drivers/CMSIS/Include/cmsis_gcc.h **** #ifndef   __WEAK
  59:Drivers/CMSIS/Include/cmsis_gcc.h ****   #define __WEAK                                 __attribute__((weak))
  60:Drivers/CMSIS/Include/cmsis_gcc.h **** #endif
  61:Drivers/CMSIS/Include/cmsis_gcc.h **** #ifndef   __PACKED
  62:Drivers/CMSIS/Include/cmsis_gcc.h ****   #define __PACKED                               __attribute__((packed, aligned(1)))
  63:Drivers/CMSIS/Include/cmsis_gcc.h **** #endif
  64:Drivers/CMSIS/Include/cmsis_gcc.h **** #ifndef   __PACKED_STRUCT
  65:Drivers/CMSIS/Include/cmsis_gcc.h ****   #define __PACKED_STRUCT                        struct __attribute__((packed, aligned(1)))
  66:Drivers/CMSIS/Include/cmsis_gcc.h **** #endif
  67:Drivers/CMSIS/Include/cmsis_gcc.h **** #ifndef   __PACKED_UNION
  68:Drivers/CMSIS/Include/cmsis_gcc.h ****   #define __PACKED_UNION                         union __attribute__((packed, aligned(1)))
  69:Drivers/CMSIS/Include/cmsis_gcc.h **** #endif
  70:Drivers/CMSIS/Include/cmsis_gcc.h **** #ifndef   __UNALIGNED_UINT32        /* deprecated */
  71:Drivers/CMSIS/Include/cmsis_gcc.h ****   #pragma GCC diagnostic push
  72:Drivers/CMSIS/Include/cmsis_gcc.h ****   #pragma GCC diagnostic ignored "-Wpacked"
  73:Drivers/CMSIS/Include/cmsis_gcc.h ****   #pragma GCC diagnostic ignored "-Wattributes"
  74:Drivers/CMSIS/Include/cmsis_gcc.h ****   struct __attribute__((packed)) T_UINT32 { uint32_t v; };
  75:Drivers/CMSIS/Include/cmsis_gcc.h ****   #pragma GCC diagnostic pop
  76:Drivers/CMSIS/Include/cmsis_gcc.h ****   #define __UNALIGNED_UINT32(x)                  (((struct T_UINT32 *)(x))->v)
  77:Drivers/CMSIS/Include/cmsis_gcc.h **** #endif
  78:Drivers/CMSIS/Include/cmsis_gcc.h **** #ifndef   __UNALIGNED_UINT16_WRITE
  79:Drivers/CMSIS/Include/cmsis_gcc.h ****   #pragma GCC diagnostic push
  80:Drivers/CMSIS/Include/cmsis_gcc.h ****   #pragma GCC diagnostic ignored "-Wpacked"
  81:Drivers/CMSIS/Include/cmsis_gcc.h ****   #pragma GCC diagnostic ignored "-Wattributes"
  82:Drivers/CMSIS/Include/cmsis_gcc.h ****   __PACKED_STRUCT T_UINT16_WRITE { uint16_t v; };
  83:Drivers/CMSIS/Include/cmsis_gcc.h ****   #pragma GCC diagnostic pop
  84:Drivers/CMSIS/Include/cmsis_gcc.h ****   #define __UNALIGNED_UINT16_WRITE(addr, val)    (void)((((struct T_UINT16_WRITE *)(void *)(addr))-
  85:Drivers/CMSIS/Include/cmsis_gcc.h **** #endif
  86:Drivers/CMSIS/Include/cmsis_gcc.h **** #ifndef   __UNALIGNED_UINT16_READ
  87:Drivers/CMSIS/Include/cmsis_gcc.h ****   #pragma GCC diagnostic push
  88:Drivers/CMSIS/Include/cmsis_gcc.h ****   #pragma GCC diagnostic ignored "-Wpacked"
  89:Drivers/CMSIS/Include/cmsis_gcc.h ****   #pragma GCC diagnostic ignored "-Wattributes"
  90:Drivers/CMSIS/Include/cmsis_gcc.h ****   __PACKED_STRUCT T_UINT16_READ { uint16_t v; };
  91:Drivers/CMSIS/Include/cmsis_gcc.h ****   #pragma GCC diagnostic pop
  92:Drivers/CMSIS/Include/cmsis_gcc.h ****   #define __UNALIGNED_UINT16_READ(addr)          (((const struct T_UINT16_READ *)(const void *)(add
  93:Drivers/CMSIS/Include/cmsis_gcc.h **** #endif
ARM GAS  C:\Users\jisu8\AppData\Local\Temp\ccZMNT1u.s 			page 16


  94:Drivers/CMSIS/Include/cmsis_gcc.h **** #ifndef   __UNALIGNED_UINT32_WRITE
  95:Drivers/CMSIS/Include/cmsis_gcc.h ****   #pragma GCC diagnostic push
  96:Drivers/CMSIS/Include/cmsis_gcc.h ****   #pragma GCC diagnostic ignored "-Wpacked"
  97:Drivers/CMSIS/Include/cmsis_gcc.h ****   #pragma GCC diagnostic ignored "-Wattributes"
  98:Drivers/CMSIS/Include/cmsis_gcc.h ****   __PACKED_STRUCT T_UINT32_WRITE { uint32_t v; };
  99:Drivers/CMSIS/Include/cmsis_gcc.h ****   #pragma GCC diagnostic pop
 100:Drivers/CMSIS/Include/cmsis_gcc.h ****   #define __UNALIGNED_UINT32_WRITE(addr, val)    (void)((((struct T_UINT32_WRITE *)(void *)(addr))-
 101:Drivers/CMSIS/Include/cmsis_gcc.h **** #endif
 102:Drivers/CMSIS/Include/cmsis_gcc.h **** #ifndef   __UNALIGNED_UINT32_READ
 103:Drivers/CMSIS/Include/cmsis_gcc.h ****   #pragma GCC diagnostic push
 104:Drivers/CMSIS/Include/cmsis_gcc.h ****   #pragma GCC diagnostic ignored "-Wpacked"
 105:Drivers/CMSIS/Include/cmsis_gcc.h ****   #pragma GCC diagnostic ignored "-Wattributes"
 106:Drivers/CMSIS/Include/cmsis_gcc.h ****   __PACKED_STRUCT T_UINT32_READ { uint32_t v; };
 107:Drivers/CMSIS/Include/cmsis_gcc.h ****   #pragma GCC diagnostic pop
 108:Drivers/CMSIS/Include/cmsis_gcc.h ****   #define __UNALIGNED_UINT32_READ(addr)          (((const struct T_UINT32_READ *)(const void *)(add
 109:Drivers/CMSIS/Include/cmsis_gcc.h **** #endif
 110:Drivers/CMSIS/Include/cmsis_gcc.h **** #ifndef   __ALIGNED
 111:Drivers/CMSIS/Include/cmsis_gcc.h ****   #define __ALIGNED(x)                           __attribute__((aligned(x)))
 112:Drivers/CMSIS/Include/cmsis_gcc.h **** #endif
 113:Drivers/CMSIS/Include/cmsis_gcc.h **** #ifndef   __RESTRICT
 114:Drivers/CMSIS/Include/cmsis_gcc.h ****   #define __RESTRICT                             __restrict
 115:Drivers/CMSIS/Include/cmsis_gcc.h **** #endif
 116:Drivers/CMSIS/Include/cmsis_gcc.h **** 
 117:Drivers/CMSIS/Include/cmsis_gcc.h **** 
 118:Drivers/CMSIS/Include/cmsis_gcc.h **** /* ###########################  Core Function Access  ########################### */
 119:Drivers/CMSIS/Include/cmsis_gcc.h **** /** \ingroup  CMSIS_Core_FunctionInterface
 120:Drivers/CMSIS/Include/cmsis_gcc.h ****     \defgroup CMSIS_Core_RegAccFunctions CMSIS Core Register Access Functions
 121:Drivers/CMSIS/Include/cmsis_gcc.h ****   @{
 122:Drivers/CMSIS/Include/cmsis_gcc.h ****  */
 123:Drivers/CMSIS/Include/cmsis_gcc.h **** 
 124:Drivers/CMSIS/Include/cmsis_gcc.h **** /**
 125:Drivers/CMSIS/Include/cmsis_gcc.h ****   \brief   Enable IRQ Interrupts
 126:Drivers/CMSIS/Include/cmsis_gcc.h ****   \details Enables IRQ interrupts by clearing the I-bit in the CPSR.
 127:Drivers/CMSIS/Include/cmsis_gcc.h ****            Can only be executed in Privileged modes.
 128:Drivers/CMSIS/Include/cmsis_gcc.h ****  */
 129:Drivers/CMSIS/Include/cmsis_gcc.h **** __STATIC_FORCEINLINE void __enable_irq(void)
 130:Drivers/CMSIS/Include/cmsis_gcc.h **** {
 131:Drivers/CMSIS/Include/cmsis_gcc.h ****   __ASM volatile ("cpsie i" : : : "memory");
 132:Drivers/CMSIS/Include/cmsis_gcc.h **** }
 133:Drivers/CMSIS/Include/cmsis_gcc.h **** 
 134:Drivers/CMSIS/Include/cmsis_gcc.h **** 
 135:Drivers/CMSIS/Include/cmsis_gcc.h **** /**
 136:Drivers/CMSIS/Include/cmsis_gcc.h ****   \brief   Disable IRQ Interrupts
 137:Drivers/CMSIS/Include/cmsis_gcc.h ****   \details Disables IRQ interrupts by setting the I-bit in the CPSR.
 138:Drivers/CMSIS/Include/cmsis_gcc.h ****            Can only be executed in Privileged modes.
 139:Drivers/CMSIS/Include/cmsis_gcc.h ****  */
 140:Drivers/CMSIS/Include/cmsis_gcc.h **** __STATIC_FORCEINLINE void __disable_irq(void)
 330              		.loc 2 140 27 view .LVU97
 331              	.LBB8:
 141:Drivers/CMSIS/Include/cmsis_gcc.h **** {
 142:Drivers/CMSIS/Include/cmsis_gcc.h ****   __ASM volatile ("cpsid i" : : : "memory");
 332              		.loc 2 142 3 view .LVU98
 333              		.syntax divided
 334              	@ 142 "Drivers/CMSIS/Include/cmsis_gcc.h" 1
 335 0000 72B6     		cpsid i
 336              	@ 0 "" 2
 337              		.thumb
ARM GAS  C:\Users\jisu8\AppData\Local\Temp\ccZMNT1u.s 			page 17


 338              		.syntax unified
 339              	.L5:
 340              	.LBE8:
 341              	.LBE7:
 437:Core/Src/main.c ****   while (1)
 342              		.loc 1 437 3 discriminator 1 view .LVU99
 438:Core/Src/main.c ****   {
 439:Core/Src/main.c ****   }
 343              		.loc 1 439 3 discriminator 1 view .LVU100
 437:Core/Src/main.c ****   while (1)
 344              		.loc 1 437 9 discriminator 1 view .LVU101
 345 0002 FEE7     		b	.L5
 346              		.cfi_endproc
 347              	.LFE47:
 349              		.section	.text.MX_ADC_Init,"ax",%progbits
 350              		.align	1
 351              		.syntax unified
 352              		.code	16
 353              		.thumb_func
 355              	MX_ADC_Init:
 356              	.LFB42:
 160:Core/Src/main.c **** 
 357              		.loc 1 160 1 view -0
 358              		.cfi_startproc
 359              		@ args = 0, pretend = 0, frame = 16
 360              		@ frame_needed = 0, uses_anonymous_args = 0
 361 0000 00B5     		push	{lr}
 362              	.LCFI3:
 363              		.cfi_def_cfa_offset 4
 364              		.cfi_offset 14, -4
 365 0002 85B0     		sub	sp, sp, #20
 366              	.LCFI4:
 367              		.cfi_def_cfa_offset 24
 166:Core/Src/main.c **** 
 368              		.loc 1 166 3 view .LVU103
 166:Core/Src/main.c **** 
 369              		.loc 1 166 26 is_stmt 0 view .LVU104
 370 0004 0C22     		movs	r2, #12
 371 0006 0021     		movs	r1, #0
 372 0008 01A8     		add	r0, sp, #4
 373 000a FFF7FEFF 		bl	memset
 374              	.LVL12:
 174:Core/Src/main.c ****   hadc.Init.ClockPrescaler = ADC_CLOCK_ASYNC_DIV1;
 375              		.loc 1 174 3 is_stmt 1 view .LVU105
 174:Core/Src/main.c ****   hadc.Init.ClockPrescaler = ADC_CLOCK_ASYNC_DIV1;
 376              		.loc 1 174 17 is_stmt 0 view .LVU106
 377 000e 2148     		ldr	r0, .L15
 378 0010 214B     		ldr	r3, .L15+4
 379 0012 0360     		str	r3, [r0]
 175:Core/Src/main.c ****   hadc.Init.Resolution = ADC_RESOLUTION_12B;
 380              		.loc 1 175 3 is_stmt 1 view .LVU107
 175:Core/Src/main.c ****   hadc.Init.Resolution = ADC_RESOLUTION_12B;
 381              		.loc 1 175 28 is_stmt 0 view .LVU108
 382 0014 0023     		movs	r3, #0
 383 0016 4360     		str	r3, [r0, #4]
 176:Core/Src/main.c ****   hadc.Init.DataAlign = ADC_DATAALIGN_RIGHT;
 384              		.loc 1 176 3 is_stmt 1 view .LVU109
ARM GAS  C:\Users\jisu8\AppData\Local\Temp\ccZMNT1u.s 			page 18


 176:Core/Src/main.c ****   hadc.Init.DataAlign = ADC_DATAALIGN_RIGHT;
 385              		.loc 1 176 24 is_stmt 0 view .LVU110
 386 0018 8360     		str	r3, [r0, #8]
 177:Core/Src/main.c ****   hadc.Init.ScanConvMode = ADC_SCAN_DIRECTION_FORWARD;
 387              		.loc 1 177 3 is_stmt 1 view .LVU111
 177:Core/Src/main.c ****   hadc.Init.ScanConvMode = ADC_SCAN_DIRECTION_FORWARD;
 388              		.loc 1 177 23 is_stmt 0 view .LVU112
 389 001a C360     		str	r3, [r0, #12]
 178:Core/Src/main.c ****   hadc.Init.EOCSelection = ADC_EOC_SINGLE_CONV;
 390              		.loc 1 178 3 is_stmt 1 view .LVU113
 178:Core/Src/main.c ****   hadc.Init.EOCSelection = ADC_EOC_SINGLE_CONV;
 391              		.loc 1 178 26 is_stmt 0 view .LVU114
 392 001c 0122     		movs	r2, #1
 393 001e 0261     		str	r2, [r0, #16]
 179:Core/Src/main.c ****   hadc.Init.LowPowerAutoWait = DISABLE;
 394              		.loc 1 179 3 is_stmt 1 view .LVU115
 179:Core/Src/main.c ****   hadc.Init.LowPowerAutoWait = DISABLE;
 395              		.loc 1 179 26 is_stmt 0 view .LVU116
 396 0020 0421     		movs	r1, #4
 397 0022 4161     		str	r1, [r0, #20]
 180:Core/Src/main.c ****   hadc.Init.LowPowerAutoPowerOff = DISABLE;
 398              		.loc 1 180 3 is_stmt 1 view .LVU117
 180:Core/Src/main.c ****   hadc.Init.LowPowerAutoPowerOff = DISABLE;
 399              		.loc 1 180 30 is_stmt 0 view .LVU118
 400 0024 0376     		strb	r3, [r0, #24]
 181:Core/Src/main.c ****   hadc.Init.ContinuousConvMode = DISABLE;
 401              		.loc 1 181 3 is_stmt 1 view .LVU119
 181:Core/Src/main.c ****   hadc.Init.ContinuousConvMode = DISABLE;
 402              		.loc 1 181 34 is_stmt 0 view .LVU120
 403 0026 4376     		strb	r3, [r0, #25]
 182:Core/Src/main.c ****   hadc.Init.DiscontinuousConvMode = DISABLE;
 404              		.loc 1 182 3 is_stmt 1 view .LVU121
 182:Core/Src/main.c ****   hadc.Init.DiscontinuousConvMode = DISABLE;
 405              		.loc 1 182 32 is_stmt 0 view .LVU122
 406 0028 8376     		strb	r3, [r0, #26]
 183:Core/Src/main.c ****   hadc.Init.ExternalTrigConv = ADC_SOFTWARE_START;
 407              		.loc 1 183 3 is_stmt 1 view .LVU123
 183:Core/Src/main.c ****   hadc.Init.ExternalTrigConv = ADC_SOFTWARE_START;
 408              		.loc 1 183 35 is_stmt 0 view .LVU124
 409 002a C376     		strb	r3, [r0, #27]
 184:Core/Src/main.c ****   hadc.Init.ExternalTrigConvEdge = ADC_EXTERNALTRIGCONVEDGE_NONE;
 410              		.loc 1 184 3 is_stmt 1 view .LVU125
 184:Core/Src/main.c ****   hadc.Init.ExternalTrigConvEdge = ADC_EXTERNALTRIGCONVEDGE_NONE;
 411              		.loc 1 184 30 is_stmt 0 view .LVU126
 412 002c C221     		movs	r1, #194
 413 002e FF31     		adds	r1, r1, #255
 414 0030 C161     		str	r1, [r0, #28]
 185:Core/Src/main.c ****   hadc.Init.DMAContinuousRequests = DISABLE;
 415              		.loc 1 185 3 is_stmt 1 view .LVU127
 185:Core/Src/main.c ****   hadc.Init.DMAContinuousRequests = DISABLE;
 416              		.loc 1 185 34 is_stmt 0 view .LVU128
 417 0032 0362     		str	r3, [r0, #32]
 186:Core/Src/main.c ****   hadc.Init.Overrun = ADC_OVR_DATA_PRESERVED;
 418              		.loc 1 186 3 is_stmt 1 view .LVU129
 186:Core/Src/main.c ****   hadc.Init.Overrun = ADC_OVR_DATA_PRESERVED;
 419              		.loc 1 186 35 is_stmt 0 view .LVU130
 420 0034 9E39     		subs	r1, r1, #158
ARM GAS  C:\Users\jisu8\AppData\Local\Temp\ccZMNT1u.s 			page 19


 421 0036 FF39     		subs	r1, r1, #255
 422 0038 4354     		strb	r3, [r0, r1]
 187:Core/Src/main.c ****   if (HAL_ADC_Init(&hadc) != HAL_OK)
 423              		.loc 1 187 3 is_stmt 1 view .LVU131
 187:Core/Src/main.c ****   if (HAL_ADC_Init(&hadc) != HAL_OK)
 424              		.loc 1 187 21 is_stmt 0 view .LVU132
 425 003a 8262     		str	r2, [r0, #40]
 188:Core/Src/main.c ****   {
 426              		.loc 1 188 3 is_stmt 1 view .LVU133
 188:Core/Src/main.c ****   {
 427              		.loc 1 188 7 is_stmt 0 view .LVU134
 428 003c FFF7FEFF 		bl	HAL_ADC_Init
 429              	.LVL13:
 188:Core/Src/main.c ****   {
 430              		.loc 1 188 6 view .LVU135
 431 0040 0028     		cmp	r0, #0
 432 0042 1FD1     		bne	.L11
 195:Core/Src/main.c ****   sConfig.Rank = ADC_RANK_CHANNEL_NUMBER;
 433              		.loc 1 195 3 is_stmt 1 view .LVU136
 195:Core/Src/main.c ****   sConfig.Rank = ADC_RANK_CHANNEL_NUMBER;
 434              		.loc 1 195 19 is_stmt 0 view .LVU137
 435 0044 0023     		movs	r3, #0
 436 0046 0193     		str	r3, [sp, #4]
 196:Core/Src/main.c ****   sConfig.SamplingTime = ADC_SAMPLETIME_1CYCLE_5;
 437              		.loc 1 196 3 is_stmt 1 view .LVU138
 196:Core/Src/main.c ****   sConfig.SamplingTime = ADC_SAMPLETIME_1CYCLE_5;
 438              		.loc 1 196 16 is_stmt 0 view .LVU139
 439 0048 8023     		movs	r3, #128
 440 004a 5B01     		lsls	r3, r3, #5
 441 004c 0293     		str	r3, [sp, #8]
 197:Core/Src/main.c ****   if (HAL_ADC_ConfigChannel(&hadc, &sConfig) != HAL_OK)
 442              		.loc 1 197 3 is_stmt 1 view .LVU140
 197:Core/Src/main.c ****   if (HAL_ADC_ConfigChannel(&hadc, &sConfig) != HAL_OK)
 443              		.loc 1 197 24 is_stmt 0 view .LVU141
 444 004e 8023     		movs	r3, #128
 445 0050 5B05     		lsls	r3, r3, #21
 446 0052 0393     		str	r3, [sp, #12]
 198:Core/Src/main.c ****   {
 447              		.loc 1 198 3 is_stmt 1 view .LVU142
 198:Core/Src/main.c ****   {
 448              		.loc 1 198 7 is_stmt 0 view .LVU143
 449 0054 01A9     		add	r1, sp, #4
 450 0056 0F48     		ldr	r0, .L15
 451 0058 FFF7FEFF 		bl	HAL_ADC_ConfigChannel
 452              	.LVL14:
 198:Core/Src/main.c ****   {
 453              		.loc 1 198 6 view .LVU144
 454 005c 0028     		cmp	r0, #0
 455 005e 13D1     		bne	.L12
 205:Core/Src/main.c ****   if (HAL_ADC_ConfigChannel(&hadc, &sConfig) != HAL_OK)
 456              		.loc 1 205 3 is_stmt 1 view .LVU145
 205:Core/Src/main.c ****   if (HAL_ADC_ConfigChannel(&hadc, &sConfig) != HAL_OK)
 457              		.loc 1 205 19 is_stmt 0 view .LVU146
 458 0060 0123     		movs	r3, #1
 459 0062 0193     		str	r3, [sp, #4]
 206:Core/Src/main.c ****   {
 460              		.loc 1 206 3 is_stmt 1 view .LVU147
ARM GAS  C:\Users\jisu8\AppData\Local\Temp\ccZMNT1u.s 			page 20


 206:Core/Src/main.c ****   {
 461              		.loc 1 206 7 is_stmt 0 view .LVU148
 462 0064 01A9     		add	r1, sp, #4
 463 0066 0B48     		ldr	r0, .L15
 464 0068 FFF7FEFF 		bl	HAL_ADC_ConfigChannel
 465              	.LVL15:
 206:Core/Src/main.c ****   {
 466              		.loc 1 206 6 view .LVU149
 467 006c 0028     		cmp	r0, #0
 468 006e 0DD1     		bne	.L13
 213:Core/Src/main.c ****   if (HAL_ADC_ConfigChannel(&hadc, &sConfig) != HAL_OK)
 469              		.loc 1 213 3 is_stmt 1 view .LVU150
 213:Core/Src/main.c ****   if (HAL_ADC_ConfigChannel(&hadc, &sConfig) != HAL_OK)
 470              		.loc 1 213 19 is_stmt 0 view .LVU151
 471 0070 0723     		movs	r3, #7
 472 0072 0193     		str	r3, [sp, #4]
 214:Core/Src/main.c ****   {
 473              		.loc 1 214 3 is_stmt 1 view .LVU152
 214:Core/Src/main.c ****   {
 474              		.loc 1 214 7 is_stmt 0 view .LVU153
 475 0074 01A9     		add	r1, sp, #4
 476 0076 0748     		ldr	r0, .L15
 477 0078 FFF7FEFF 		bl	HAL_ADC_ConfigChannel
 478              	.LVL16:
 214:Core/Src/main.c ****   {
 479              		.loc 1 214 6 view .LVU154
 480 007c 0028     		cmp	r0, #0
 481 007e 07D1     		bne	.L14
 222:Core/Src/main.c **** 
 482              		.loc 1 222 1 view .LVU155
 483 0080 05B0     		add	sp, sp, #20
 484              		@ sp needed
 485 0082 00BD     		pop	{pc}
 486              	.L11:
 190:Core/Src/main.c ****   }
 487              		.loc 1 190 5 is_stmt 1 view .LVU156
 488 0084 FFF7FEFF 		bl	Error_Handler
 489              	.LVL17:
 490              	.L12:
 200:Core/Src/main.c ****   }
 491              		.loc 1 200 5 view .LVU157
 492 0088 FFF7FEFF 		bl	Error_Handler
 493              	.LVL18:
 494              	.L13:
 208:Core/Src/main.c ****   }
 495              		.loc 1 208 5 view .LVU158
 496 008c FFF7FEFF 		bl	Error_Handler
 497              	.LVL19:
 498              	.L14:
 216:Core/Src/main.c ****   }
 499              		.loc 1 216 5 view .LVU159
 500 0090 FFF7FEFF 		bl	Error_Handler
 501              	.LVL20:
 502              	.L16:
 503              		.align	2
 504              	.L15:
 505 0094 00000000 		.word	.LANCHOR0
ARM GAS  C:\Users\jisu8\AppData\Local\Temp\ccZMNT1u.s 			page 21


 506 0098 00240140 		.word	1073816576
 507              		.cfi_endproc
 508              	.LFE42:
 510              		.section	.text.MX_I2C2_Init,"ax",%progbits
 511              		.align	1
 512              		.syntax unified
 513              		.code	16
 514              		.thumb_func
 516              	MX_I2C2_Init:
 517              	.LFB43:
 230:Core/Src/main.c **** 
 518              		.loc 1 230 1 view -0
 519              		.cfi_startproc
 520              		@ args = 0, pretend = 0, frame = 0
 521              		@ frame_needed = 0, uses_anonymous_args = 0
 522 0000 10B5     		push	{r4, lr}
 523              	.LCFI5:
 524              		.cfi_def_cfa_offset 8
 525              		.cfi_offset 4, -8
 526              		.cfi_offset 14, -4
 239:Core/Src/main.c ****   hi2c2.Init.Timing = 0x20303E5D;
 527              		.loc 1 239 3 view .LVU161
 239:Core/Src/main.c ****   hi2c2.Init.Timing = 0x20303E5D;
 528              		.loc 1 239 18 is_stmt 0 view .LVU162
 529 0002 1248     		ldr	r0, .L24
 530 0004 124B     		ldr	r3, .L24+4
 531 0006 0360     		str	r3, [r0]
 240:Core/Src/main.c ****   hi2c2.Init.OwnAddress1 = 0;
 532              		.loc 1 240 3 is_stmt 1 view .LVU163
 240:Core/Src/main.c ****   hi2c2.Init.OwnAddress1 = 0;
 533              		.loc 1 240 21 is_stmt 0 view .LVU164
 534 0008 124B     		ldr	r3, .L24+8
 535 000a 4360     		str	r3, [r0, #4]
 241:Core/Src/main.c ****   hi2c2.Init.AddressingMode = I2C_ADDRESSINGMODE_7BIT;
 536              		.loc 1 241 3 is_stmt 1 view .LVU165
 241:Core/Src/main.c ****   hi2c2.Init.AddressingMode = I2C_ADDRESSINGMODE_7BIT;
 537              		.loc 1 241 26 is_stmt 0 view .LVU166
 538 000c 0023     		movs	r3, #0
 539 000e 8360     		str	r3, [r0, #8]
 242:Core/Src/main.c ****   hi2c2.Init.DualAddressMode = I2C_DUALADDRESS_DISABLE;
 540              		.loc 1 242 3 is_stmt 1 view .LVU167
 242:Core/Src/main.c ****   hi2c2.Init.DualAddressMode = I2C_DUALADDRESS_DISABLE;
 541              		.loc 1 242 29 is_stmt 0 view .LVU168
 542 0010 0122     		movs	r2, #1
 543 0012 C260     		str	r2, [r0, #12]
 243:Core/Src/main.c ****   hi2c2.Init.OwnAddress2 = 0;
 544              		.loc 1 243 3 is_stmt 1 view .LVU169
 243:Core/Src/main.c ****   hi2c2.Init.OwnAddress2 = 0;
 545              		.loc 1 243 30 is_stmt 0 view .LVU170
 546 0014 0361     		str	r3, [r0, #16]
 244:Core/Src/main.c ****   hi2c2.Init.OwnAddress2Masks = I2C_OA2_NOMASK;
 547              		.loc 1 244 3 is_stmt 1 view .LVU171
 244:Core/Src/main.c ****   hi2c2.Init.OwnAddress2Masks = I2C_OA2_NOMASK;
 548              		.loc 1 244 26 is_stmt 0 view .LVU172
 549 0016 4361     		str	r3, [r0, #20]
 245:Core/Src/main.c ****   hi2c2.Init.GeneralCallMode = I2C_GENERALCALL_DISABLE;
 550              		.loc 1 245 3 is_stmt 1 view .LVU173
ARM GAS  C:\Users\jisu8\AppData\Local\Temp\ccZMNT1u.s 			page 22


 245:Core/Src/main.c ****   hi2c2.Init.GeneralCallMode = I2C_GENERALCALL_DISABLE;
 551              		.loc 1 245 31 is_stmt 0 view .LVU174
 552 0018 8361     		str	r3, [r0, #24]
 246:Core/Src/main.c ****   hi2c2.Init.NoStretchMode = I2C_NOSTRETCH_DISABLE;
 553              		.loc 1 246 3 is_stmt 1 view .LVU175
 246:Core/Src/main.c ****   hi2c2.Init.NoStretchMode = I2C_NOSTRETCH_DISABLE;
 554              		.loc 1 246 30 is_stmt 0 view .LVU176
 555 001a C361     		str	r3, [r0, #28]
 247:Core/Src/main.c ****   if (HAL_I2C_Init(&hi2c2) != HAL_OK)
 556              		.loc 1 247 3 is_stmt 1 view .LVU177
 247:Core/Src/main.c ****   if (HAL_I2C_Init(&hi2c2) != HAL_OK)
 557              		.loc 1 247 28 is_stmt 0 view .LVU178
 558 001c 0362     		str	r3, [r0, #32]
 248:Core/Src/main.c ****   {
 559              		.loc 1 248 3 is_stmt 1 view .LVU179
 248:Core/Src/main.c ****   {
 560              		.loc 1 248 7 is_stmt 0 view .LVU180
 561 001e FFF7FEFF 		bl	HAL_I2C_Init
 562              	.LVL21:
 248:Core/Src/main.c ****   {
 563              		.loc 1 248 6 view .LVU181
 564 0022 0028     		cmp	r0, #0
 565 0024 0CD1     		bne	.L21
 255:Core/Src/main.c ****   {
 566              		.loc 1 255 3 is_stmt 1 view .LVU182
 255:Core/Src/main.c ****   {
 567              		.loc 1 255 7 is_stmt 0 view .LVU183
 568 0026 0021     		movs	r1, #0
 569 0028 0848     		ldr	r0, .L24
 570 002a FFF7FEFF 		bl	HAL_I2CEx_ConfigAnalogFilter
 571              	.LVL22:
 255:Core/Src/main.c ****   {
 572              		.loc 1 255 6 view .LVU184
 573 002e 0028     		cmp	r0, #0
 574 0030 08D1     		bne	.L22
 262:Core/Src/main.c ****   {
 575              		.loc 1 262 3 is_stmt 1 view .LVU185
 262:Core/Src/main.c ****   {
 576              		.loc 1 262 7 is_stmt 0 view .LVU186
 577 0032 0021     		movs	r1, #0
 578 0034 0548     		ldr	r0, .L24
 579 0036 FFF7FEFF 		bl	HAL_I2CEx_ConfigDigitalFilter
 580              	.LVL23:
 262:Core/Src/main.c ****   {
 581              		.loc 1 262 6 view .LVU187
 582 003a 0028     		cmp	r0, #0
 583 003c 04D1     		bne	.L23
 270:Core/Src/main.c **** 
 584              		.loc 1 270 1 view .LVU188
 585              		@ sp needed
 586 003e 10BD     		pop	{r4, pc}
 587              	.L21:
 250:Core/Src/main.c ****   }
 588              		.loc 1 250 5 is_stmt 1 view .LVU189
 589 0040 FFF7FEFF 		bl	Error_Handler
 590              	.LVL24:
 591              	.L22:
ARM GAS  C:\Users\jisu8\AppData\Local\Temp\ccZMNT1u.s 			page 23


 257:Core/Src/main.c ****   }
 592              		.loc 1 257 5 view .LVU190
 593 0044 FFF7FEFF 		bl	Error_Handler
 594              	.LVL25:
 595              	.L23:
 264:Core/Src/main.c ****   }
 596              		.loc 1 264 5 view .LVU191
 597 0048 FFF7FEFF 		bl	Error_Handler
 598              	.LVL26:
 599              	.L25:
 600              		.align	2
 601              	.L24:
 602 004c 00000000 		.word	.LANCHOR1
 603 0050 00580040 		.word	1073764352
 604 0054 5D3E3020 		.word	540032605
 605              		.cfi_endproc
 606              	.LFE43:
 608              		.section	.text.MX_TIM14_Init,"ax",%progbits
 609              		.align	1
 610              		.syntax unified
 611              		.code	16
 612              		.thumb_func
 614              	MX_TIM14_Init:
 615              	.LFB44:
 278:Core/Src/main.c **** 
 616              		.loc 1 278 1 view -0
 617              		.cfi_startproc
 618              		@ args = 0, pretend = 0, frame = 0
 619              		@ frame_needed = 0, uses_anonymous_args = 0
 620 0000 10B5     		push	{r4, lr}
 621              	.LCFI6:
 622              		.cfi_def_cfa_offset 8
 623              		.cfi_offset 4, -8
 624              		.cfi_offset 14, -4
 287:Core/Src/main.c ****   htim14.Init.Prescaler = 47;
 625              		.loc 1 287 3 view .LVU193
 287:Core/Src/main.c ****   htim14.Init.Prescaler = 47;
 626              		.loc 1 287 19 is_stmt 0 view .LVU194
 627 0002 0948     		ldr	r0, .L29
 628 0004 094B     		ldr	r3, .L29+4
 629 0006 0360     		str	r3, [r0]
 288:Core/Src/main.c ****   htim14.Init.CounterMode = TIM_COUNTERMODE_UP;
 630              		.loc 1 288 3 is_stmt 1 view .LVU195
 288:Core/Src/main.c ****   htim14.Init.CounterMode = TIM_COUNTERMODE_UP;
 631              		.loc 1 288 25 is_stmt 0 view .LVU196
 632 0008 2F23     		movs	r3, #47
 633 000a 4360     		str	r3, [r0, #4]
 289:Core/Src/main.c ****   htim14.Init.Period = 100;
 634              		.loc 1 289 3 is_stmt 1 view .LVU197
 289:Core/Src/main.c ****   htim14.Init.Period = 100;
 635              		.loc 1 289 27 is_stmt 0 view .LVU198
 636 000c 0023     		movs	r3, #0
 637 000e 8360     		str	r3, [r0, #8]
 290:Core/Src/main.c ****   htim14.Init.ClockDivision = TIM_CLOCKDIVISION_DIV1;
 638              		.loc 1 290 3 is_stmt 1 view .LVU199
 290:Core/Src/main.c ****   htim14.Init.ClockDivision = TIM_CLOCKDIVISION_DIV1;
 639              		.loc 1 290 22 is_stmt 0 view .LVU200
ARM GAS  C:\Users\jisu8\AppData\Local\Temp\ccZMNT1u.s 			page 24


 640 0010 6422     		movs	r2, #100
 641 0012 C260     		str	r2, [r0, #12]
 291:Core/Src/main.c ****   htim14.Init.AutoReloadPreload = TIM_AUTORELOAD_PRELOAD_DISABLE;
 642              		.loc 1 291 3 is_stmt 1 view .LVU201
 291:Core/Src/main.c ****   htim14.Init.AutoReloadPreload = TIM_AUTORELOAD_PRELOAD_DISABLE;
 643              		.loc 1 291 29 is_stmt 0 view .LVU202
 644 0014 0361     		str	r3, [r0, #16]
 292:Core/Src/main.c ****   if (HAL_TIM_Base_Init(&htim14) != HAL_OK)
 645              		.loc 1 292 3 is_stmt 1 view .LVU203
 292:Core/Src/main.c ****   if (HAL_TIM_Base_Init(&htim14) != HAL_OK)
 646              		.loc 1 292 33 is_stmt 0 view .LVU204
 647 0016 8361     		str	r3, [r0, #24]
 293:Core/Src/main.c ****   {
 648              		.loc 1 293 3 is_stmt 1 view .LVU205
 293:Core/Src/main.c ****   {
 649              		.loc 1 293 7 is_stmt 0 view .LVU206
 650 0018 FFF7FEFF 		bl	HAL_TIM_Base_Init
 651              	.LVL27:
 293:Core/Src/main.c ****   {
 652              		.loc 1 293 6 view .LVU207
 653 001c 0028     		cmp	r0, #0
 654 001e 00D1     		bne	.L28
 301:Core/Src/main.c **** 
 655              		.loc 1 301 1 view .LVU208
 656              		@ sp needed
 657 0020 10BD     		pop	{r4, pc}
 658              	.L28:
 295:Core/Src/main.c ****   }
 659              		.loc 1 295 5 is_stmt 1 view .LVU209
 660 0022 FFF7FEFF 		bl	Error_Handler
 661              	.LVL28:
 662              	.L30:
 663 0026 C046     		.align	2
 664              	.L29:
 665 0028 00000000 		.word	htim14
 666 002c 00200040 		.word	1073750016
 667              		.cfi_endproc
 668              	.LFE44:
 670              		.section	.text.MX_TIM16_Init,"ax",%progbits
 671              		.align	1
 672              		.syntax unified
 673              		.code	16
 674              		.thumb_func
 676              	MX_TIM16_Init:
 677              	.LFB45:
 309:Core/Src/main.c **** 
 678              		.loc 1 309 1 view -0
 679              		.cfi_startproc
 680              		@ args = 0, pretend = 0, frame = 0
 681              		@ frame_needed = 0, uses_anonymous_args = 0
 682 0000 10B5     		push	{r4, lr}
 683              	.LCFI7:
 684              		.cfi_def_cfa_offset 8
 685              		.cfi_offset 4, -8
 686              		.cfi_offset 14, -4
 318:Core/Src/main.c ****   htim16.Init.Prescaler = 47;
 687              		.loc 1 318 3 view .LVU211
ARM GAS  C:\Users\jisu8\AppData\Local\Temp\ccZMNT1u.s 			page 25


 318:Core/Src/main.c ****   htim16.Init.Prescaler = 47;
 688              		.loc 1 318 19 is_stmt 0 view .LVU212
 689 0002 0948     		ldr	r0, .L34
 690 0004 094B     		ldr	r3, .L34+4
 691 0006 0360     		str	r3, [r0]
 319:Core/Src/main.c ****   htim16.Init.CounterMode = TIM_COUNTERMODE_UP;
 692              		.loc 1 319 3 is_stmt 1 view .LVU213
 319:Core/Src/main.c ****   htim16.Init.CounterMode = TIM_COUNTERMODE_UP;
 693              		.loc 1 319 25 is_stmt 0 view .LVU214
 694 0008 2F23     		movs	r3, #47
 695 000a 4360     		str	r3, [r0, #4]
 320:Core/Src/main.c ****   htim16.Init.Period = 10000;
 696              		.loc 1 320 3 is_stmt 1 view .LVU215
 320:Core/Src/main.c ****   htim16.Init.Period = 10000;
 697              		.loc 1 320 27 is_stmt 0 view .LVU216
 698 000c 0023     		movs	r3, #0
 699 000e 8360     		str	r3, [r0, #8]
 321:Core/Src/main.c ****   htim16.Init.ClockDivision = TIM_CLOCKDIVISION_DIV1;
 700              		.loc 1 321 3 is_stmt 1 view .LVU217
 321:Core/Src/main.c ****   htim16.Init.ClockDivision = TIM_CLOCKDIVISION_DIV1;
 701              		.loc 1 321 22 is_stmt 0 view .LVU218
 702 0010 074A     		ldr	r2, .L34+8
 703 0012 C260     		str	r2, [r0, #12]
 322:Core/Src/main.c ****   htim16.Init.RepetitionCounter = 0;
 704              		.loc 1 322 3 is_stmt 1 view .LVU219
 322:Core/Src/main.c ****   htim16.Init.RepetitionCounter = 0;
 705              		.loc 1 322 29 is_stmt 0 view .LVU220
 706 0014 0361     		str	r3, [r0, #16]
 323:Core/Src/main.c ****   htim16.Init.AutoReloadPreload = TIM_AUTORELOAD_PRELOAD_DISABLE;
 707              		.loc 1 323 3 is_stmt 1 view .LVU221
 323:Core/Src/main.c ****   htim16.Init.AutoReloadPreload = TIM_AUTORELOAD_PRELOAD_DISABLE;
 708              		.loc 1 323 33 is_stmt 0 view .LVU222
 709 0016 4361     		str	r3, [r0, #20]
 324:Core/Src/main.c ****   if (HAL_TIM_Base_Init(&htim16) != HAL_OK)
 710              		.loc 1 324 3 is_stmt 1 view .LVU223
 324:Core/Src/main.c ****   if (HAL_TIM_Base_Init(&htim16) != HAL_OK)
 711              		.loc 1 324 33 is_stmt 0 view .LVU224
 712 0018 8361     		str	r3, [r0, #24]
 325:Core/Src/main.c ****   {
 713              		.loc 1 325 3 is_stmt 1 view .LVU225
 325:Core/Src/main.c ****   {
 714              		.loc 1 325 7 is_stmt 0 view .LVU226
 715 001a FFF7FEFF 		bl	HAL_TIM_Base_Init
 716              	.LVL29:
 325:Core/Src/main.c ****   {
 717              		.loc 1 325 6 view .LVU227
 718 001e 0028     		cmp	r0, #0
 719 0020 00D1     		bne	.L33
 333:Core/Src/main.c **** 
 720              		.loc 1 333 1 view .LVU228
 721              		@ sp needed
 722 0022 10BD     		pop	{r4, pc}
 723              	.L33:
 327:Core/Src/main.c ****   }
 724              		.loc 1 327 5 is_stmt 1 view .LVU229
 725 0024 FFF7FEFF 		bl	Error_Handler
 726              	.LVL30:
ARM GAS  C:\Users\jisu8\AppData\Local\Temp\ccZMNT1u.s 			page 26


 727              	.L35:
 728              		.align	2
 729              	.L34:
 730 0028 00000000 		.word	htim16
 731 002c 00440140 		.word	1073824768
 732 0030 10270000 		.word	10000
 733              		.cfi_endproc
 734              	.LFE45:
 736              		.section	.text.SystemClock_Config,"ax",%progbits
 737              		.align	1
 738              		.global	SystemClock_Config
 739              		.syntax unified
 740              		.code	16
 741              		.thumb_func
 743              	SystemClock_Config:
 744              	.LFB41:
 123:Core/Src/main.c ****   RCC_OscInitTypeDef RCC_OscInitStruct = {0};
 745              		.loc 1 123 1 view -0
 746              		.cfi_startproc
 747              		@ args = 0, pretend = 0, frame = 72
 748              		@ frame_needed = 0, uses_anonymous_args = 0
 749 0000 00B5     		push	{lr}
 750              	.LCFI8:
 751              		.cfi_def_cfa_offset 4
 752              		.cfi_offset 14, -4
 753 0002 93B0     		sub	sp, sp, #76
 754              	.LCFI9:
 755              		.cfi_def_cfa_offset 80
 124:Core/Src/main.c ****   RCC_ClkInitTypeDef RCC_ClkInitStruct = {0};
 756              		.loc 1 124 3 view .LVU231
 124:Core/Src/main.c ****   RCC_ClkInitTypeDef RCC_ClkInitStruct = {0};
 757              		.loc 1 124 22 is_stmt 0 view .LVU232
 758 0004 3422     		movs	r2, #52
 759 0006 0021     		movs	r1, #0
 760 0008 05A8     		add	r0, sp, #20
 761 000a FFF7FEFF 		bl	memset
 762              	.LVL31:
 125:Core/Src/main.c **** 
 763              		.loc 1 125 3 is_stmt 1 view .LVU233
 125:Core/Src/main.c **** 
 764              		.loc 1 125 22 is_stmt 0 view .LVU234
 765 000e 1022     		movs	r2, #16
 766 0010 0021     		movs	r1, #0
 767 0012 01A8     		add	r0, sp, #4
 768 0014 FFF7FEFF 		bl	memset
 769              	.LVL32:
 130:Core/Src/main.c ****   RCC_OscInitStruct.HSI48State = RCC_HSI48_ON;
 770              		.loc 1 130 3 is_stmt 1 view .LVU235
 130:Core/Src/main.c ****   RCC_OscInitStruct.HSI48State = RCC_HSI48_ON;
 771              		.loc 1 130 36 is_stmt 0 view .LVU236
 772 0018 3023     		movs	r3, #48
 773 001a 0593     		str	r3, [sp, #20]
 131:Core/Src/main.c ****   RCC_OscInitStruct.HSI14State = RCC_HSI14_ON;
 774              		.loc 1 131 3 is_stmt 1 view .LVU237
 131:Core/Src/main.c ****   RCC_OscInitStruct.HSI14State = RCC_HSI14_ON;
 775              		.loc 1 131 32 is_stmt 0 view .LVU238
 776 001c 2F3B     		subs	r3, r3, #47
ARM GAS  C:\Users\jisu8\AppData\Local\Temp\ccZMNT1u.s 			page 27


 777 001e 0D93     		str	r3, [sp, #52]
 132:Core/Src/main.c ****   RCC_OscInitStruct.HSI14CalibrationValue = 16;
 778              		.loc 1 132 3 is_stmt 1 view .LVU239
 132:Core/Src/main.c ****   RCC_OscInitStruct.HSI14CalibrationValue = 16;
 779              		.loc 1 132 32 is_stmt 0 view .LVU240
 780 0020 0A93     		str	r3, [sp, #40]
 133:Core/Src/main.c ****   RCC_OscInitStruct.PLL.PLLState = RCC_PLL_NONE;
 781              		.loc 1 133 3 is_stmt 1 view .LVU241
 133:Core/Src/main.c ****   RCC_OscInitStruct.PLL.PLLState = RCC_PLL_NONE;
 782              		.loc 1 133 43 is_stmt 0 view .LVU242
 783 0022 0F33     		adds	r3, r3, #15
 784 0024 0B93     		str	r3, [sp, #44]
 134:Core/Src/main.c ****   if (HAL_RCC_OscConfig(&RCC_OscInitStruct) != HAL_OK)
 785              		.loc 1 134 3 is_stmt 1 view .LVU243
 135:Core/Src/main.c ****   {
 786              		.loc 1 135 3 view .LVU244
 135:Core/Src/main.c ****   {
 787              		.loc 1 135 7 is_stmt 0 view .LVU245
 788 0026 05A8     		add	r0, sp, #20
 789 0028 FFF7FEFF 		bl	HAL_RCC_OscConfig
 790              	.LVL33:
 135:Core/Src/main.c ****   {
 791              		.loc 1 135 6 view .LVU246
 792 002c 0028     		cmp	r0, #0
 793 002e 0ED1     		bne	.L39
 142:Core/Src/main.c ****                               |RCC_CLOCKTYPE_PCLK1;
 794              		.loc 1 142 3 is_stmt 1 view .LVU247
 142:Core/Src/main.c ****                               |RCC_CLOCKTYPE_PCLK1;
 795              		.loc 1 142 31 is_stmt 0 view .LVU248
 796 0030 0723     		movs	r3, #7
 797 0032 0193     		str	r3, [sp, #4]
 144:Core/Src/main.c ****   RCC_ClkInitStruct.AHBCLKDivider = RCC_SYSCLK_DIV1;
 798              		.loc 1 144 3 is_stmt 1 view .LVU249
 144:Core/Src/main.c ****   RCC_ClkInitStruct.AHBCLKDivider = RCC_SYSCLK_DIV1;
 799              		.loc 1 144 34 is_stmt 0 view .LVU250
 800 0034 043B     		subs	r3, r3, #4
 801 0036 0293     		str	r3, [sp, #8]
 145:Core/Src/main.c ****   RCC_ClkInitStruct.APB1CLKDivider = RCC_HCLK_DIV1;
 802              		.loc 1 145 3 is_stmt 1 view .LVU251
 145:Core/Src/main.c ****   RCC_ClkInitStruct.APB1CLKDivider = RCC_HCLK_DIV1;
 803              		.loc 1 145 35 is_stmt 0 view .LVU252
 804 0038 0023     		movs	r3, #0
 805 003a 0393     		str	r3, [sp, #12]
 146:Core/Src/main.c **** 
 806              		.loc 1 146 3 is_stmt 1 view .LVU253
 146:Core/Src/main.c **** 
 807              		.loc 1 146 36 is_stmt 0 view .LVU254
 808 003c 0493     		str	r3, [sp, #16]
 148:Core/Src/main.c ****   {
 809              		.loc 1 148 3 is_stmt 1 view .LVU255
 148:Core/Src/main.c ****   {
 810              		.loc 1 148 7 is_stmt 0 view .LVU256
 811 003e 0121     		movs	r1, #1
 812 0040 01A8     		add	r0, sp, #4
 813 0042 FFF7FEFF 		bl	HAL_RCC_ClockConfig
 814              	.LVL34:
 148:Core/Src/main.c ****   {
ARM GAS  C:\Users\jisu8\AppData\Local\Temp\ccZMNT1u.s 			page 28


 815              		.loc 1 148 6 view .LVU257
 816 0046 0028     		cmp	r0, #0
 817 0048 03D1     		bne	.L40
 152:Core/Src/main.c **** 
 818              		.loc 1 152 1 view .LVU258
 819 004a 13B0     		add	sp, sp, #76
 820              		@ sp needed
 821 004c 00BD     		pop	{pc}
 822              	.L39:
 137:Core/Src/main.c ****   }
 823              		.loc 1 137 5 is_stmt 1 view .LVU259
 824 004e FFF7FEFF 		bl	Error_Handler
 825              	.LVL35:
 826              	.L40:
 150:Core/Src/main.c ****   }
 827              		.loc 1 150 5 view .LVU260
 828 0052 FFF7FEFF 		bl	Error_Handler
 829              	.LVL36:
 830              		.cfi_endproc
 831              	.LFE41:
 833              		.section	.text.main,"ax",%progbits
 834              		.align	1
 835              		.global	main
 836              		.syntax unified
 837              		.code	16
 838              		.thumb_func
 840              	main:
 841              	.LFB40:
  74:Core/Src/main.c ****   /* USER CODE BEGIN 1 */
 842              		.loc 1 74 1 view -0
 843              		.cfi_startproc
 844              		@ Volatile: function does not return.
 845              		@ args = 0, pretend = 0, frame = 0
 846              		@ frame_needed = 0, uses_anonymous_args = 0
 847 0000 10B5     		push	{r4, lr}
 848              	.LCFI10:
 849              		.cfi_def_cfa_offset 8
 850              		.cfi_offset 4, -8
 851              		.cfi_offset 14, -4
  82:Core/Src/main.c **** 
 852              		.loc 1 82 3 view .LVU262
 853 0002 FFF7FEFF 		bl	HAL_Init
 854              	.LVL37:
  89:Core/Src/main.c **** 
 855              		.loc 1 89 3 view .LVU263
 856 0006 FFF7FEFF 		bl	SystemClock_Config
 857              	.LVL38:
  96:Core/Src/main.c ****   MX_ADC_Init();
 858              		.loc 1 96 3 view .LVU264
 859 000a FFF7FEFF 		bl	MX_GPIO_Init
 860              	.LVL39:
  97:Core/Src/main.c ****   MX_I2C2_Init();
 861              		.loc 1 97 3 view .LVU265
 862 000e FFF7FEFF 		bl	MX_ADC_Init
 863              	.LVL40:
  98:Core/Src/main.c ****   MX_TIM14_Init();
 864              		.loc 1 98 3 view .LVU266
ARM GAS  C:\Users\jisu8\AppData\Local\Temp\ccZMNT1u.s 			page 29


 865 0012 FFF7FEFF 		bl	MX_I2C2_Init
 866              	.LVL41:
  99:Core/Src/main.c ****   MX_TIM16_Init();
 867              		.loc 1 99 3 view .LVU267
 868 0016 FFF7FEFF 		bl	MX_TIM14_Init
 869              	.LVL42:
 100:Core/Src/main.c ****   /* USER CODE BEGIN 2 */
 870              		.loc 1 100 3 view .LVU268
 871 001a FFF7FEFF 		bl	MX_TIM16_Init
 872              	.LVL43:
 102:Core/Src/main.c ****   HAL_TIM_Base_Start_IT(&htim16);
 873              		.loc 1 102 3 view .LVU269
 874 001e 0548     		ldr	r0, .L43
 875 0020 FFF7FEFF 		bl	HAL_TIM_Base_Start_IT
 876              	.LVL44:
 103:Core/Src/main.c ****   Os_Init_Task();
 877              		.loc 1 103 3 view .LVU270
 878 0024 0448     		ldr	r0, .L43+4
 879 0026 FFF7FEFF 		bl	HAL_TIM_Base_Start_IT
 880              	.LVL45:
 104:Core/Src/main.c ****   /* USER CODE END 2 */
 881              		.loc 1 104 3 view .LVU271
 882 002a FFF7FEFF 		bl	Os_Init_Task
 883              	.LVL46:
 884              	.L42:
 109:Core/Src/main.c ****   {
 885              		.loc 1 109 3 discriminator 1 view .LVU272
 112:Core/Src/main.c ****     /* USER CODE BEGIN 3 */
 886              		.loc 1 112 5 discriminator 1 view .LVU273
 887 002e FFF7FEFF 		bl	Os_Handler
 888              	.LVL47:
 109:Core/Src/main.c ****   {
 889              		.loc 1 109 9 discriminator 1 view .LVU274
 890 0032 FCE7     		b	.L42
 891              	.L44:
 892              		.align	2
 893              	.L43:
 894 0034 00000000 		.word	htim14
 895 0038 00000000 		.word	htim16
 896              		.cfi_endproc
 897              	.LFE40:
 899              		.global	htim16
 900              		.global	htim14
 901              		.global	hi2c2
 902              		.global	hadc
 903              		.section	.bss.hadc,"aw",%nobits
 904              		.align	2
 905              		.set	.LANCHOR0,. + 0
 908              	hadc:
 909 0000 00000000 		.space	64
 909      00000000 
 909      00000000 
 909      00000000 
 909      00000000 
 910              		.section	.bss.hi2c2,"aw",%nobits
 911              		.align	2
 912              		.set	.LANCHOR1,. + 0
ARM GAS  C:\Users\jisu8\AppData\Local\Temp\ccZMNT1u.s 			page 30


 915              	hi2c2:
 916 0000 00000000 		.space	76
 916      00000000 
 916      00000000 
 916      00000000 
 916      00000000 
 917              		.section	.bss.htim14,"aw",%nobits
 918              		.align	2
 921              	htim14:
 922 0000 00000000 		.space	180
 922      00000000 
 922      00000000 
 922      00000000 
 922      00000000 
 923              		.section	.bss.htim16,"aw",%nobits
 924              		.align	2
 927              	htim16:
 928 0000 00000000 		.space	180
 928      00000000 
 928      00000000 
 928      00000000 
 928      00000000 
 929              		.text
 930              	.Letext0:
 931              		.file 3 "d:\\3.tools\\arm_gcc_toolchain\\arm-none-eabi\\include\\machine\\_default_types.h"
 932              		.file 4 "d:\\3.tools\\arm_gcc_toolchain\\arm-none-eabi\\include\\sys\\_stdint.h"
 933              		.file 5 "Drivers/CMSIS/Device/ST/STM32F0xx/Include/stm32f072xb.h"
 934              		.file 6 "Drivers/CMSIS/Device/ST/STM32F0xx/Include/stm32f0xx.h"
 935              		.file 7 "Drivers/STM32F0xx_HAL_Driver/Inc/stm32f0xx_hal_def.h"
 936              		.file 8 "Drivers/STM32F0xx_HAL_Driver/Inc/stm32f0xx_hal_rcc.h"
 937              		.file 9 "Drivers/STM32F0xx_HAL_Driver/Inc/stm32f0xx_hal_gpio.h"
 938              		.file 10 "Drivers/STM32F0xx_HAL_Driver/Inc/stm32f0xx_hal_dma.h"
 939              		.file 11 "Drivers/STM32F0xx_HAL_Driver/Inc/stm32f0xx_hal_adc.h"
 940              		.file 12 "Drivers/STM32F0xx_HAL_Driver/Inc/stm32f0xx_hal_i2c.h"
 941              		.file 13 "Drivers/STM32F0xx_HAL_Driver/Inc/stm32f0xx_hal_tim.h"
 942              		.file 14 "Core/Inc/main.h"
 943              		.file 15 "Drivers/STM32F0xx_HAL_Driver/Inc/stm32f0xx_hal_i2c_ex.h"
 944              		.file 16 "Drivers/STM32F0xx_HAL_Driver/Inc/stm32f0xx_hal.h"
 945              		.file 17 "Core/Inc/os.h"
 946              		.file 18 "<built-in>"
ARM GAS  C:\Users\jisu8\AppData\Local\Temp\ccZMNT1u.s 			page 31

