ARM GAS  C:\Users\jisu8\AppData\Local\Temp\ccNNEHIe.s 			page 1


   1              		.cpu cortex-m0
   2              		.arch armv6s-m
   3              		.fpu softvfp
   4              		.eabi_attribute 20, 1
   5              		.eabi_attribute 21, 1
   6              		.eabi_attribute 23, 3
   7              		.eabi_attribute 24, 1
   8              		.eabi_attribute 25, 1
   9              		.eabi_attribute 26, 1
  10              		.eabi_attribute 30, 1
  11              		.eabi_attribute 34, 0
  12              		.eabi_attribute 18, 4
  13              		.file	"startup_stm32f072xb.c"
  14              		.text
  15              	.Ltext0:
  16              		.cfi_sections	.debug_frame
  17              		.section	.text.Reset_Handler,"ax",%progbits
  18              		.align	1
  19              		.global	Reset_Handler
  20              		.syntax unified
  21              		.code	16
  22              		.thumb_func
  24              	Reset_Handler:
  25              	.LFB40:
  26              		.file 1 "startup_stm32f072xb.c"
   1:startup_stm32f072xb.c **** #include "stdint.h"
   2:startup_stm32f072xb.c **** #include "system_stm32f0xx.h"
   3:startup_stm32f072xb.c **** #include "stm32f0xx.h"
   4:startup_stm32f072xb.c **** #include "stm32f0xx_hal_def.h"
   5:startup_stm32f072xb.c **** #include "main.h"
   6:startup_stm32f072xb.c **** #include "os.h"
   7:startup_stm32f072xb.c **** 
   8:startup_stm32f072xb.c **** extern uint32_t _sidata;
   9:startup_stm32f072xb.c **** extern uint32_t _sdata;
  10:startup_stm32f072xb.c **** extern uint32_t _edata;
  11:startup_stm32f072xb.c **** extern uint32_t _sbss;
  12:startup_stm32f072xb.c **** extern uint32_t _ebss;
  13:startup_stm32f072xb.c **** extern uint32_t _estack;
  14:startup_stm32f072xb.c **** 
  15:startup_stm32f072xb.c **** extern void __libc_init_array();
  16:startup_stm32f072xb.c **** 
  17:startup_stm32f072xb.c **** void Reset_Handler()
  18:startup_stm32f072xb.c **** {
  27              		.loc 1 18 1 view -0
  28              		.cfi_startproc
  29              		@ args = 0, pretend = 0, frame = 0
  30              		@ frame_needed = 0, uses_anonymous_args = 0
  31 0000 10B5     		push	{r4, lr}
  32              	.LCFI0:
  33              		.cfi_def_cfa_offset 8
  34              		.cfi_offset 4, -8
  35              		.cfi_offset 14, -4
  19:startup_stm32f072xb.c ****     uint32_t *dataInit = &_sidata;
  36              		.loc 1 19 5 view .LVU1
  37              	.LVL0:
  20:startup_stm32f072xb.c ****     uint32_t *data = &_sdata;
  38              		.loc 1 20 5 view .LVU2
ARM GAS  C:\Users\jisu8\AppData\Local\Temp\ccNNEHIe.s 			page 2


  21:startup_stm32f072xb.c ****     while(data < &_edata)
  39              		.loc 1 21 5 view .LVU3
  20:startup_stm32f072xb.c ****     uint32_t *data = &_sdata;
  40              		.loc 1 20 15 is_stmt 0 view .LVU4
  41 0002 0B4B     		ldr	r3, .L7
  19:startup_stm32f072xb.c ****     uint32_t *dataInit = &_sidata;
  42              		.loc 1 19 15 view .LVU5
  43 0004 0B4A     		ldr	r2, .L7+4
  44              		.loc 1 21 10 view .LVU6
  45 0006 01E0     		b	.L2
  46              	.LVL1:
  47              	.L3:
  22:startup_stm32f072xb.c ****     {
  23:startup_stm32f072xb.c ****         *data++ = *dataInit++;
  48              		.loc 1 23 9 is_stmt 1 view .LVU7
  49              		.loc 1 23 19 is_stmt 0 view .LVU8
  50 0008 02CA     		ldmia	r2!, {r1}
  51              	.LVL2:
  52              		.loc 1 23 17 view .LVU9
  53 000a 02C3     		stmia	r3!, {r1}
  54              	.LVL3:
  55              	.L2:
  21:startup_stm32f072xb.c ****     while(data < &_edata)
  56              		.loc 1 21 10 is_stmt 1 view .LVU10
  57 000c 0A49     		ldr	r1, .L7+8
  58 000e 8B42     		cmp	r3, r1
  59 0010 FAD3     		bcc	.L3
  24:startup_stm32f072xb.c ****     }
  25:startup_stm32f072xb.c **** 
  26:startup_stm32f072xb.c ****     uint32_t *bss = &_sbss;
  60              		.loc 1 26 15 is_stmt 0 view .LVU11
  61 0012 0A4B     		ldr	r3, .L7+12
  62              	.LVL4:
  63              		.loc 1 26 15 view .LVU12
  64 0014 01E0     		b	.L4
  65              	.LVL5:
  66              	.L5:
  27:startup_stm32f072xb.c ****     while(bss < &_ebss)
  28:startup_stm32f072xb.c ****     {
  29:startup_stm32f072xb.c ****         *bss++ = 0;
  67              		.loc 1 29 9 is_stmt 1 view .LVU13
  68              		.loc 1 29 16 is_stmt 0 view .LVU14
  69 0016 0022     		movs	r2, #0
  70 0018 04C3     		stmia	r3!, {r2}
  71              	.LVL6:
  72              	.L4:
  27:startup_stm32f072xb.c ****     while(bss < &_ebss)
  73              		.loc 1 27 10 is_stmt 1 view .LVU15
  74 001a 094A     		ldr	r2, .L7+16
  75 001c 9342     		cmp	r3, r2
  76 001e FAD3     		bcc	.L5
  30:startup_stm32f072xb.c ****     }
  31:startup_stm32f072xb.c **** 
  32:startup_stm32f072xb.c ****     SystemInit(); 
  77              		.loc 1 32 5 view .LVU16
  78 0020 FFF7FEFF 		bl	SystemInit
  79              	.LVL7:
ARM GAS  C:\Users\jisu8\AppData\Local\Temp\ccNNEHIe.s 			page 3


  33:startup_stm32f072xb.c ****     __libc_init_array();
  80              		.loc 1 33 5 view .LVU17
  81 0024 FFF7FEFF 		bl	__libc_init_array
  82              	.LVL8:
  34:startup_stm32f072xb.c ****     main();
  83              		.loc 1 34 5 view .LVU18
  84 0028 FFF7FEFF 		bl	main
  85              	.LVL9:
  86              	.L6:
  35:startup_stm32f072xb.c **** 
  36:startup_stm32f072xb.c ****     while (1);
  87              		.loc 1 36 5 discriminator 1 view .LVU19
  88              		.loc 1 36 14 discriminator 1 view .LVU20
  89              		.loc 1 36 11 discriminator 1 view .LVU21
  90 002c FEE7     		b	.L6
  91              	.L8:
  92 002e C046     		.align	2
  93              	.L7:
  94 0030 00000000 		.word	_sdata
  95 0034 00000000 		.word	_sidata
  96 0038 00000000 		.word	_edata
  97 003c 00000000 		.word	_sbss
  98 0040 00000000 		.word	_ebss
  99              		.cfi_endproc
 100              	.LFE40:
 102              		.section	.text.Default_Handler,"ax",%progbits
 103              		.align	1
 104              		.global	Default_Handler
 105              		.syntax unified
 106              		.code	16
 107              		.thumb_func
 109              	Default_Handler:
 110              	.LFB41:
  37:startup_stm32f072xb.c **** }
  38:startup_stm32f072xb.c **** 
  39:startup_stm32f072xb.c **** void Default_Handler(void)
  40:startup_stm32f072xb.c **** {
 111              		.loc 1 40 1 view -0
 112              		.cfi_startproc
 113              		@ Volatile: function does not return.
 114              		@ args = 0, pretend = 0, frame = 0
 115              		@ frame_needed = 0, uses_anonymous_args = 0
 116              		@ link register save eliminated.
 117              	.L10:
  41:startup_stm32f072xb.c ****     while (1);
 118              		.loc 1 41 5 discriminator 1 view .LVU23
 119              		.loc 1 41 14 discriminator 1 view .LVU24
 120              		.loc 1 41 11 discriminator 1 view .LVU25
 121 0000 FEE7     		b	.L10
 122              		.cfi_endproc
 123              	.LFE41:
 125              		.section	.text.NMI_Handler,"ax",%progbits
 126              		.align	1
 127              		.weak	NMI_Handler
 128              		.syntax unified
 129              		.code	16
 130              		.thumb_func
ARM GAS  C:\Users\jisu8\AppData\Local\Temp\ccNNEHIe.s 			page 4


 132              	NMI_Handler:
 133              	.LFB45:
  42:startup_stm32f072xb.c **** }
  43:startup_stm32f072xb.c ****           
  44:startup_stm32f072xb.c **** void TIM14_Handler(void)    
  45:startup_stm32f072xb.c **** {
  46:startup_stm32f072xb.c ****     HAL_TIM_IRQHandler(&htim14);
  47:startup_stm32f072xb.c **** }
  48:startup_stm32f072xb.c **** 
  49:startup_stm32f072xb.c **** void TIM16_Handler(void)
  50:startup_stm32f072xb.c **** {
  51:startup_stm32f072xb.c ****     HAL_TIM_IRQHandler(&htim16);
  52:startup_stm32f072xb.c **** }
  53:startup_stm32f072xb.c **** 
  54:startup_stm32f072xb.c **** void SystemTick_Handler(void)
  55:startup_stm32f072xb.c **** {
  56:startup_stm32f072xb.c ****     /* USER CODE BEGIN SysTick_IRQn 0 */
  57:startup_stm32f072xb.c **** 
  58:startup_stm32f072xb.c ****     /* USER CODE END SysTick_IRQn 0 */
  59:startup_stm32f072xb.c ****     HAL_IncTick();
  60:startup_stm32f072xb.c ****     /* USER CODE BEGIN SysTick_IRQn 1 */
  61:startup_stm32f072xb.c ****     Os_Handler_1ms();
  62:startup_stm32f072xb.c ****     /* USER CODE END SysTick_IRQn 1 */
  63:startup_stm32f072xb.c **** }
  64:startup_stm32f072xb.c **** 
  65:startup_stm32f072xb.c **** __weak void NMI_Handler(void)                          {Default_Handler();}
 134              		.loc 1 65 56 view -0
 135              		.cfi_startproc
 136              		@ args = 0, pretend = 0, frame = 0
 137              		@ frame_needed = 0, uses_anonymous_args = 0
 138 0000 10B5     		push	{r4, lr}
 139              	.LCFI1:
 140              		.cfi_def_cfa_offset 8
 141              		.cfi_offset 4, -8
 142              		.cfi_offset 14, -4
 143              		.loc 1 65 57 view .LVU27
 144 0002 FFF7FEFF 		bl	Default_Handler
 145              	.LVL10:
 146              		.cfi_endproc
 147              	.LFE45:
 149              		.section	.text.HardFault_Handler,"ax",%progbits
 150              		.align	1
 151              		.weak	HardFault_Handler
 152              		.syntax unified
 153              		.code	16
 154              		.thumb_func
 156              	HardFault_Handler:
 157              	.LFB46:
  66:startup_stm32f072xb.c **** __weak void HardFault_Handler(void)                    {Default_Handler();}
 158              		.loc 1 66 56 view -0
 159              		.cfi_startproc
 160              		@ args = 0, pretend = 0, frame = 0
 161              		@ frame_needed = 0, uses_anonymous_args = 0
 162 0000 10B5     		push	{r4, lr}
 163              	.LCFI2:
 164              		.cfi_def_cfa_offset 8
 165              		.cfi_offset 4, -8
ARM GAS  C:\Users\jisu8\AppData\Local\Temp\ccNNEHIe.s 			page 5


 166              		.cfi_offset 14, -4
 167              		.loc 1 66 57 view .LVU29
 168 0002 FFF7FEFF 		bl	Default_Handler
 169              	.LVL11:
 170              		.cfi_endproc
 171              	.LFE46:
 173              		.section	.text.SVC_Handler,"ax",%progbits
 174              		.align	1
 175              		.weak	SVC_Handler
 176              		.syntax unified
 177              		.code	16
 178              		.thumb_func
 180              	SVC_Handler:
 181              	.LFB47:
  67:startup_stm32f072xb.c **** __weak void SVC_Handler(void)                          {Default_Handler();}
 182              		.loc 1 67 56 view -0
 183              		.cfi_startproc
 184              		@ args = 0, pretend = 0, frame = 0
 185              		@ frame_needed = 0, uses_anonymous_args = 0
 186 0000 10B5     		push	{r4, lr}
 187              	.LCFI3:
 188              		.cfi_def_cfa_offset 8
 189              		.cfi_offset 4, -8
 190              		.cfi_offset 14, -4
 191              		.loc 1 67 57 view .LVU31
 192 0002 FFF7FEFF 		bl	Default_Handler
 193              	.LVL12:
 194              		.cfi_endproc
 195              	.LFE47:
 197              		.section	.text.PendSV_Handler,"ax",%progbits
 198              		.align	1
 199              		.weak	PendSV_Handler
 200              		.syntax unified
 201              		.code	16
 202              		.thumb_func
 204              	PendSV_Handler:
 205              	.LFB48:
  68:startup_stm32f072xb.c **** __weak void PendSV_Handler(void)                       {Default_Handler();}
 206              		.loc 1 68 56 view -0
 207              		.cfi_startproc
 208              		@ args = 0, pretend = 0, frame = 0
 209              		@ frame_needed = 0, uses_anonymous_args = 0
 210 0000 10B5     		push	{r4, lr}
 211              	.LCFI4:
 212              		.cfi_def_cfa_offset 8
 213              		.cfi_offset 4, -8
 214              		.cfi_offset 14, -4
 215              		.loc 1 68 57 view .LVU33
 216 0002 FFF7FEFF 		bl	Default_Handler
 217              	.LVL13:
 218              		.cfi_endproc
 219              	.LFE48:
 221              		.section	.text.WWDG_IRQHandler,"ax",%progbits
 222              		.align	1
 223              		.weak	WWDG_IRQHandler
 224              		.syntax unified
 225              		.code	16
ARM GAS  C:\Users\jisu8\AppData\Local\Temp\ccNNEHIe.s 			page 6


 226              		.thumb_func
 228              	WWDG_IRQHandler:
 229              	.LFB50:
  69:startup_stm32f072xb.c **** __weak void SysTick_Handler(void)                      {SystemTick_Handler();}
  70:startup_stm32f072xb.c **** __weak void WWDG_IRQHandler(void)                      {Default_Handler();}  
 230              		.loc 1 70 56 view -0
 231              		.cfi_startproc
 232              		@ args = 0, pretend = 0, frame = 0
 233              		@ frame_needed = 0, uses_anonymous_args = 0
 234 0000 10B5     		push	{r4, lr}
 235              	.LCFI5:
 236              		.cfi_def_cfa_offset 8
 237              		.cfi_offset 4, -8
 238              		.cfi_offset 14, -4
 239              		.loc 1 70 57 view .LVU35
 240 0002 FFF7FEFF 		bl	Default_Handler
 241              	.LVL14:
 242              		.cfi_endproc
 243              	.LFE50:
 245              		.section	.text.PVD_VDDIO2_IRQHandler,"ax",%progbits
 246              		.align	1
 247              		.weak	PVD_VDDIO2_IRQHandler
 248              		.syntax unified
 249              		.code	16
 250              		.thumb_func
 252              	PVD_VDDIO2_IRQHandler:
 253              	.LFB51:
  71:startup_stm32f072xb.c **** __weak void PVD_VDDIO2_IRQHandler(void)                {Default_Handler();}               
 254              		.loc 1 71 56 view -0
 255              		.cfi_startproc
 256              		@ args = 0, pretend = 0, frame = 0
 257              		@ frame_needed = 0, uses_anonymous_args = 0
 258 0000 10B5     		push	{r4, lr}
 259              	.LCFI6:
 260              		.cfi_def_cfa_offset 8
 261              		.cfi_offset 4, -8
 262              		.cfi_offset 14, -4
 263              		.loc 1 71 57 view .LVU37
 264 0002 FFF7FEFF 		bl	Default_Handler
 265              	.LVL15:
 266              		.cfi_endproc
 267              	.LFE51:
 269              		.section	.text.RTC_IRQHandler,"ax",%progbits
 270              		.align	1
 271              		.weak	RTC_IRQHandler
 272              		.syntax unified
 273              		.code	16
 274              		.thumb_func
 276              	RTC_IRQHandler:
 277              	.LFB52:
  72:startup_stm32f072xb.c **** __weak void RTC_IRQHandler(void)                       {Default_Handler();}                      
 278              		.loc 1 72 56 view -0
 279              		.cfi_startproc
 280              		@ args = 0, pretend = 0, frame = 0
 281              		@ frame_needed = 0, uses_anonymous_args = 0
 282 0000 10B5     		push	{r4, lr}
 283              	.LCFI7:
ARM GAS  C:\Users\jisu8\AppData\Local\Temp\ccNNEHIe.s 			page 7


 284              		.cfi_def_cfa_offset 8
 285              		.cfi_offset 4, -8
 286              		.cfi_offset 14, -4
 287              		.loc 1 72 57 view .LVU39
 288 0002 FFF7FEFF 		bl	Default_Handler
 289              	.LVL16:
 290              		.cfi_endproc
 291              	.LFE52:
 293              		.section	.text.FLASH_IRQHandler,"ax",%progbits
 294              		.align	1
 295              		.weak	FLASH_IRQHandler
 296              		.syntax unified
 297              		.code	16
 298              		.thumb_func
 300              	FLASH_IRQHandler:
 301              	.LFB53:
  73:startup_stm32f072xb.c **** __weak void FLASH_IRQHandler(void)                     {Default_Handler();}                    
 302              		.loc 1 73 56 view -0
 303              		.cfi_startproc
 304              		@ args = 0, pretend = 0, frame = 0
 305              		@ frame_needed = 0, uses_anonymous_args = 0
 306 0000 10B5     		push	{r4, lr}
 307              	.LCFI8:
 308              		.cfi_def_cfa_offset 8
 309              		.cfi_offset 4, -8
 310              		.cfi_offset 14, -4
 311              		.loc 1 73 57 view .LVU41
 312 0002 FFF7FEFF 		bl	Default_Handler
 313              	.LVL17:
 314              		.cfi_endproc
 315              	.LFE53:
 317              		.section	.text.RCC_CRS_IRQHandler,"ax",%progbits
 318              		.align	1
 319              		.weak	RCC_CRS_IRQHandler
 320              		.syntax unified
 321              		.code	16
 322              		.thumb_func
 324              	RCC_CRS_IRQHandler:
 325              	.LFB54:
  74:startup_stm32f072xb.c **** __weak void RCC_CRS_IRQHandler(void)                   {Default_Handler();}                  
 326              		.loc 1 74 56 view -0
 327              		.cfi_startproc
 328              		@ args = 0, pretend = 0, frame = 0
 329              		@ frame_needed = 0, uses_anonymous_args = 0
 330 0000 10B5     		push	{r4, lr}
 331              	.LCFI9:
 332              		.cfi_def_cfa_offset 8
 333              		.cfi_offset 4, -8
 334              		.cfi_offset 14, -4
 335              		.loc 1 74 57 view .LVU43
 336 0002 FFF7FEFF 		bl	Default_Handler
 337              	.LVL18:
 338              		.cfi_endproc
 339              	.LFE54:
 341              		.section	.text.EXTI0_1_IRQHandler,"ax",%progbits
 342              		.align	1
 343              		.weak	EXTI0_1_IRQHandler
ARM GAS  C:\Users\jisu8\AppData\Local\Temp\ccNNEHIe.s 			page 8


 344              		.syntax unified
 345              		.code	16
 346              		.thumb_func
 348              	EXTI0_1_IRQHandler:
 349              	.LFB55:
  75:startup_stm32f072xb.c **** __weak void EXTI0_1_IRQHandler(void)                   {Default_Handler();}                
 350              		.loc 1 75 56 view -0
 351              		.cfi_startproc
 352              		@ args = 0, pretend = 0, frame = 0
 353              		@ frame_needed = 0, uses_anonymous_args = 0
 354 0000 10B5     		push	{r4, lr}
 355              	.LCFI10:
 356              		.cfi_def_cfa_offset 8
 357              		.cfi_offset 4, -8
 358              		.cfi_offset 14, -4
 359              		.loc 1 75 57 view .LVU45
 360 0002 FFF7FEFF 		bl	Default_Handler
 361              	.LVL19:
 362              		.cfi_endproc
 363              	.LFE55:
 365              		.section	.text.EXTI2_3_IRQHandler,"ax",%progbits
 366              		.align	1
 367              		.weak	EXTI2_3_IRQHandler
 368              		.syntax unified
 369              		.code	16
 370              		.thumb_func
 372              	EXTI2_3_IRQHandler:
 373              	.LFB56:
  76:startup_stm32f072xb.c **** __weak void EXTI2_3_IRQHandler(void)                   {Default_Handler();}                 
 374              		.loc 1 76 56 view -0
 375              		.cfi_startproc
 376              		@ args = 0, pretend = 0, frame = 0
 377              		@ frame_needed = 0, uses_anonymous_args = 0
 378 0000 10B5     		push	{r4, lr}
 379              	.LCFI11:
 380              		.cfi_def_cfa_offset 8
 381              		.cfi_offset 4, -8
 382              		.cfi_offset 14, -4
 383              		.loc 1 76 57 view .LVU47
 384 0002 FFF7FEFF 		bl	Default_Handler
 385              	.LVL20:
 386              		.cfi_endproc
 387              	.LFE56:
 389              		.section	.text.EXTI4_15_IRQHandler,"ax",%progbits
 390              		.align	1
 391              		.weak	EXTI4_15_IRQHandler
 392              		.syntax unified
 393              		.code	16
 394              		.thumb_func
 396              	EXTI4_15_IRQHandler:
 397              	.LFB57:
  77:startup_stm32f072xb.c **** __weak void EXTI4_15_IRQHandler(void)                  {Default_Handler();}               
 398              		.loc 1 77 56 view -0
 399              		.cfi_startproc
 400              		@ args = 0, pretend = 0, frame = 0
 401              		@ frame_needed = 0, uses_anonymous_args = 0
 402 0000 10B5     		push	{r4, lr}
ARM GAS  C:\Users\jisu8\AppData\Local\Temp\ccNNEHIe.s 			page 9


 403              	.LCFI12:
 404              		.cfi_def_cfa_offset 8
 405              		.cfi_offset 4, -8
 406              		.cfi_offset 14, -4
 407              		.loc 1 77 57 view .LVU49
 408 0002 FFF7FEFF 		bl	Default_Handler
 409              	.LVL21:
 410              		.cfi_endproc
 411              	.LFE57:
 413              		.section	.text.TSC_IRQHandler,"ax",%progbits
 414              		.align	1
 415              		.weak	TSC_IRQHandler
 416              		.syntax unified
 417              		.code	16
 418              		.thumb_func
 420              	TSC_IRQHandler:
 421              	.LFB58:
  78:startup_stm32f072xb.c **** __weak void TSC_IRQHandler(void)                       {Default_Handler();}                  
 422              		.loc 1 78 56 view -0
 423              		.cfi_startproc
 424              		@ args = 0, pretend = 0, frame = 0
 425              		@ frame_needed = 0, uses_anonymous_args = 0
 426 0000 10B5     		push	{r4, lr}
 427              	.LCFI13:
 428              		.cfi_def_cfa_offset 8
 429              		.cfi_offset 4, -8
 430              		.cfi_offset 14, -4
 431              		.loc 1 78 57 view .LVU51
 432 0002 FFF7FEFF 		bl	Default_Handler
 433              	.LVL22:
 434              		.cfi_endproc
 435              	.LFE58:
 437              		.section	.text.DMA1_Channel1_IRQHandler,"ax",%progbits
 438              		.align	1
 439              		.weak	DMA1_Channel1_IRQHandler
 440              		.syntax unified
 441              		.code	16
 442              		.thumb_func
 444              	DMA1_Channel1_IRQHandler:
 445              	.LFB59:
  79:startup_stm32f072xb.c **** __weak void DMA1_Channel1_IRQHandler(void)             {Default_Handler();}       
 446              		.loc 1 79 56 view -0
 447              		.cfi_startproc
 448              		@ args = 0, pretend = 0, frame = 0
 449              		@ frame_needed = 0, uses_anonymous_args = 0
 450 0000 10B5     		push	{r4, lr}
 451              	.LCFI14:
 452              		.cfi_def_cfa_offset 8
 453              		.cfi_offset 4, -8
 454              		.cfi_offset 14, -4
 455              		.loc 1 79 57 view .LVU53
 456 0002 FFF7FEFF 		bl	Default_Handler
 457              	.LVL23:
 458              		.cfi_endproc
 459              	.LFE59:
 461              		.section	.text.DMA1_Channel2_3_IRQHandler,"ax",%progbits
 462              		.align	1
ARM GAS  C:\Users\jisu8\AppData\Local\Temp\ccNNEHIe.s 			page 10


 463              		.weak	DMA1_Channel2_3_IRQHandler
 464              		.syntax unified
 465              		.code	16
 466              		.thumb_func
 468              	DMA1_Channel2_3_IRQHandler:
 469              	.LFB60:
  80:startup_stm32f072xb.c **** __weak void DMA1_Channel2_3_IRQHandler(void)           {Default_Handler();}      
 470              		.loc 1 80 56 view -0
 471              		.cfi_startproc
 472              		@ args = 0, pretend = 0, frame = 0
 473              		@ frame_needed = 0, uses_anonymous_args = 0
 474 0000 10B5     		push	{r4, lr}
 475              	.LCFI15:
 476              		.cfi_def_cfa_offset 8
 477              		.cfi_offset 4, -8
 478              		.cfi_offset 14, -4
 479              		.loc 1 80 57 view .LVU55
 480 0002 FFF7FEFF 		bl	Default_Handler
 481              	.LVL24:
 482              		.cfi_endproc
 483              	.LFE60:
 485              		.section	.text.DMA1_Channel4_5_6_7_IRQHandler,"ax",%progbits
 486              		.align	1
 487              		.weak	DMA1_Channel4_5_6_7_IRQHandler
 488              		.syntax unified
 489              		.code	16
 490              		.thumb_func
 492              	DMA1_Channel4_5_6_7_IRQHandler:
 493              	.LFB61:
  81:startup_stm32f072xb.c **** __weak void DMA1_Channel4_5_6_7_IRQHandler(void)       {Default_Handler();}    
 494              		.loc 1 81 56 view -0
 495              		.cfi_startproc
 496              		@ args = 0, pretend = 0, frame = 0
 497              		@ frame_needed = 0, uses_anonymous_args = 0
 498 0000 10B5     		push	{r4, lr}
 499              	.LCFI16:
 500              		.cfi_def_cfa_offset 8
 501              		.cfi_offset 4, -8
 502              		.cfi_offset 14, -4
 503              		.loc 1 81 57 view .LVU57
 504 0002 FFF7FEFF 		bl	Default_Handler
 505              	.LVL25:
 506              		.cfi_endproc
 507              	.LFE61:
 509              		.section	.text.ADC1_COMP_IRQHandler,"ax",%progbits
 510              		.align	1
 511              		.weak	ADC1_COMP_IRQHandler
 512              		.syntax unified
 513              		.code	16
 514              		.thumb_func
 516              	ADC1_COMP_IRQHandler:
 517              	.LFB62:
  82:startup_stm32f072xb.c **** __weak void ADC1_COMP_IRQHandler(void)                 {Default_Handler();}  
 518              		.loc 1 82 56 view -0
 519              		.cfi_startproc
 520              		@ args = 0, pretend = 0, frame = 0
 521              		@ frame_needed = 0, uses_anonymous_args = 0
ARM GAS  C:\Users\jisu8\AppData\Local\Temp\ccNNEHIe.s 			page 11


 522 0000 10B5     		push	{r4, lr}
 523              	.LCFI17:
 524              		.cfi_def_cfa_offset 8
 525              		.cfi_offset 4, -8
 526              		.cfi_offset 14, -4
 527              		.loc 1 82 57 view .LVU59
 528 0002 FFF7FEFF 		bl	Default_Handler
 529              	.LVL26:
 530              		.cfi_endproc
 531              	.LFE62:
 533              		.section	.text.TIM1_BRK_UP_TRG_COM_IRQHandler,"ax",%progbits
 534              		.align	1
 535              		.weak	TIM1_BRK_UP_TRG_COM_IRQHandler
 536              		.syntax unified
 537              		.code	16
 538              		.thumb_func
 540              	TIM1_BRK_UP_TRG_COM_IRQHandler:
 541              	.LFB63:
  83:startup_stm32f072xb.c **** __weak void TIM1_BRK_UP_TRG_COM_IRQHandler(void)       {Default_Handler();}  
 542              		.loc 1 83 56 view -0
 543              		.cfi_startproc
 544              		@ args = 0, pretend = 0, frame = 0
 545              		@ frame_needed = 0, uses_anonymous_args = 0
 546 0000 10B5     		push	{r4, lr}
 547              	.LCFI18:
 548              		.cfi_def_cfa_offset 8
 549              		.cfi_offset 4, -8
 550              		.cfi_offset 14, -4
 551              		.loc 1 83 57 view .LVU61
 552 0002 FFF7FEFF 		bl	Default_Handler
 553              	.LVL27:
 554              		.cfi_endproc
 555              	.LFE63:
 557              		.section	.text.TIM1_CC_IRQHandler,"ax",%progbits
 558              		.align	1
 559              		.weak	TIM1_CC_IRQHandler
 560              		.syntax unified
 561              		.code	16
 562              		.thumb_func
 564              	TIM1_CC_IRQHandler:
 565              	.LFB64:
  84:startup_stm32f072xb.c **** __weak void TIM1_CC_IRQHandler(void)                   {Default_Handler();}  
 566              		.loc 1 84 56 view -0
 567              		.cfi_startproc
 568              		@ args = 0, pretend = 0, frame = 0
 569              		@ frame_needed = 0, uses_anonymous_args = 0
 570 0000 10B5     		push	{r4, lr}
 571              	.LCFI19:
 572              		.cfi_def_cfa_offset 8
 573              		.cfi_offset 4, -8
 574              		.cfi_offset 14, -4
 575              		.loc 1 84 57 view .LVU63
 576 0002 FFF7FEFF 		bl	Default_Handler
 577              	.LVL28:
 578              		.cfi_endproc
 579              	.LFE64:
 581              		.section	.text.TIM2_IRQHandler,"ax",%progbits
ARM GAS  C:\Users\jisu8\AppData\Local\Temp\ccNNEHIe.s 			page 12


 582              		.align	1
 583              		.weak	TIM2_IRQHandler
 584              		.syntax unified
 585              		.code	16
 586              		.thumb_func
 588              	TIM2_IRQHandler:
 589              	.LFB65:
  85:startup_stm32f072xb.c **** __weak void TIM2_IRQHandler(void)                      {Default_Handler();}  
 590              		.loc 1 85 56 view -0
 591              		.cfi_startproc
 592              		@ args = 0, pretend = 0, frame = 0
 593              		@ frame_needed = 0, uses_anonymous_args = 0
 594 0000 10B5     		push	{r4, lr}
 595              	.LCFI20:
 596              		.cfi_def_cfa_offset 8
 597              		.cfi_offset 4, -8
 598              		.cfi_offset 14, -4
 599              		.loc 1 85 57 view .LVU65
 600 0002 FFF7FEFF 		bl	Default_Handler
 601              	.LVL29:
 602              		.cfi_endproc
 603              	.LFE65:
 605              		.section	.text.TIM3_IRQHandler,"ax",%progbits
 606              		.align	1
 607              		.weak	TIM3_IRQHandler
 608              		.syntax unified
 609              		.code	16
 610              		.thumb_func
 612              	TIM3_IRQHandler:
 613              	.LFB66:
  86:startup_stm32f072xb.c **** __weak void TIM3_IRQHandler(void)                      {Default_Handler();}  
 614              		.loc 1 86 56 view -0
 615              		.cfi_startproc
 616              		@ args = 0, pretend = 0, frame = 0
 617              		@ frame_needed = 0, uses_anonymous_args = 0
 618 0000 10B5     		push	{r4, lr}
 619              	.LCFI21:
 620              		.cfi_def_cfa_offset 8
 621              		.cfi_offset 4, -8
 622              		.cfi_offset 14, -4
 623              		.loc 1 86 57 view .LVU67
 624 0002 FFF7FEFF 		bl	Default_Handler
 625              	.LVL30:
 626              		.cfi_endproc
 627              	.LFE66:
 629              		.section	.text.TIM6_DAC_IRQHandler,"ax",%progbits
 630              		.align	1
 631              		.weak	TIM6_DAC_IRQHandler
 632              		.syntax unified
 633              		.code	16
 634              		.thumb_func
 636              	TIM6_DAC_IRQHandler:
 637              	.LFB67:
  87:startup_stm32f072xb.c **** __weak void TIM6_DAC_IRQHandler(void)                  {Default_Handler();}  
 638              		.loc 1 87 56 view -0
 639              		.cfi_startproc
 640              		@ args = 0, pretend = 0, frame = 0
ARM GAS  C:\Users\jisu8\AppData\Local\Temp\ccNNEHIe.s 			page 13


 641              		@ frame_needed = 0, uses_anonymous_args = 0
 642 0000 10B5     		push	{r4, lr}
 643              	.LCFI22:
 644              		.cfi_def_cfa_offset 8
 645              		.cfi_offset 4, -8
 646              		.cfi_offset 14, -4
 647              		.loc 1 87 57 view .LVU69
 648 0002 FFF7FEFF 		bl	Default_Handler
 649              	.LVL31:
 650              		.cfi_endproc
 651              	.LFE67:
 653              		.section	.text.TIM7_IRQHandler,"ax",%progbits
 654              		.align	1
 655              		.weak	TIM7_IRQHandler
 656              		.syntax unified
 657              		.code	16
 658              		.thumb_func
 660              	TIM7_IRQHandler:
 661              	.LFB68:
  88:startup_stm32f072xb.c **** __weak void TIM7_IRQHandler(void)                      {Default_Handler();}  
 662              		.loc 1 88 56 view -0
 663              		.cfi_startproc
 664              		@ args = 0, pretend = 0, frame = 0
 665              		@ frame_needed = 0, uses_anonymous_args = 0
 666 0000 10B5     		push	{r4, lr}
 667              	.LCFI23:
 668              		.cfi_def_cfa_offset 8
 669              		.cfi_offset 4, -8
 670              		.cfi_offset 14, -4
 671              		.loc 1 88 57 view .LVU71
 672 0002 FFF7FEFF 		bl	Default_Handler
 673              	.LVL32:
 674              		.cfi_endproc
 675              	.LFE68:
 677              		.section	.text.TIM15_IRQHandler,"ax",%progbits
 678              		.align	1
 679              		.weak	TIM15_IRQHandler
 680              		.syntax unified
 681              		.code	16
 682              		.thumb_func
 684              	TIM15_IRQHandler:
 685              	.LFB70:
  89:startup_stm32f072xb.c **** __weak void TIM14_IRQHandler(void)                     {TIM14_Handler();}  
  90:startup_stm32f072xb.c **** __weak void TIM15_IRQHandler(void)                     {Default_Handler();}  
 686              		.loc 1 90 56 view -0
 687              		.cfi_startproc
 688              		@ args = 0, pretend = 0, frame = 0
 689              		@ frame_needed = 0, uses_anonymous_args = 0
 690 0000 10B5     		push	{r4, lr}
 691              	.LCFI24:
 692              		.cfi_def_cfa_offset 8
 693              		.cfi_offset 4, -8
 694              		.cfi_offset 14, -4
 695              		.loc 1 90 57 view .LVU73
 696 0002 FFF7FEFF 		bl	Default_Handler
 697              	.LVL33:
 698              		.cfi_endproc
ARM GAS  C:\Users\jisu8\AppData\Local\Temp\ccNNEHIe.s 			page 14


 699              	.LFE70:
 701              		.section	.text.TIM17_IRQHandler,"ax",%progbits
 702              		.align	1
 703              		.weak	TIM17_IRQHandler
 704              		.syntax unified
 705              		.code	16
 706              		.thumb_func
 708              	TIM17_IRQHandler:
 709              	.LFB72:
  91:startup_stm32f072xb.c **** __weak void TIM16_IRQHandler(void)                     {TIM16_Handler();}  
  92:startup_stm32f072xb.c **** __weak void TIM17_IRQHandler(void)                     {Default_Handler();}  
 710              		.loc 1 92 56 view -0
 711              		.cfi_startproc
 712              		@ args = 0, pretend = 0, frame = 0
 713              		@ frame_needed = 0, uses_anonymous_args = 0
 714 0000 10B5     		push	{r4, lr}
 715              	.LCFI25:
 716              		.cfi_def_cfa_offset 8
 717              		.cfi_offset 4, -8
 718              		.cfi_offset 14, -4
 719              		.loc 1 92 57 view .LVU75
 720 0002 FFF7FEFF 		bl	Default_Handler
 721              	.LVL34:
 722              		.cfi_endproc
 723              	.LFE72:
 725              		.section	.text.I2C1_IRQHandler,"ax",%progbits
 726              		.align	1
 727              		.weak	I2C1_IRQHandler
 728              		.syntax unified
 729              		.code	16
 730              		.thumb_func
 732              	I2C1_IRQHandler:
 733              	.LFB73:
  93:startup_stm32f072xb.c **** __weak void I2C1_IRQHandler(void)                      {Default_Handler();}  
 734              		.loc 1 93 56 view -0
 735              		.cfi_startproc
 736              		@ args = 0, pretend = 0, frame = 0
 737              		@ frame_needed = 0, uses_anonymous_args = 0
 738 0000 10B5     		push	{r4, lr}
 739              	.LCFI26:
 740              		.cfi_def_cfa_offset 8
 741              		.cfi_offset 4, -8
 742              		.cfi_offset 14, -4
 743              		.loc 1 93 57 view .LVU77
 744 0002 FFF7FEFF 		bl	Default_Handler
 745              	.LVL35:
 746              		.cfi_endproc
 747              	.LFE73:
 749              		.section	.text.I2C2_IRQHandler,"ax",%progbits
 750              		.align	1
 751              		.weak	I2C2_IRQHandler
 752              		.syntax unified
 753              		.code	16
 754              		.thumb_func
 756              	I2C2_IRQHandler:
 757              	.LFB74:
  94:startup_stm32f072xb.c **** __weak void I2C2_IRQHandler(void)                      {Default_Handler();}  
ARM GAS  C:\Users\jisu8\AppData\Local\Temp\ccNNEHIe.s 			page 15


 758              		.loc 1 94 56 view -0
 759              		.cfi_startproc
 760              		@ args = 0, pretend = 0, frame = 0
 761              		@ frame_needed = 0, uses_anonymous_args = 0
 762 0000 10B5     		push	{r4, lr}
 763              	.LCFI27:
 764              		.cfi_def_cfa_offset 8
 765              		.cfi_offset 4, -8
 766              		.cfi_offset 14, -4
 767              		.loc 1 94 57 view .LVU79
 768 0002 FFF7FEFF 		bl	Default_Handler
 769              	.LVL36:
 770              		.cfi_endproc
 771              	.LFE74:
 773              		.section	.text.SPI1_IRQHandler,"ax",%progbits
 774              		.align	1
 775              		.weak	SPI1_IRQHandler
 776              		.syntax unified
 777              		.code	16
 778              		.thumb_func
 780              	SPI1_IRQHandler:
 781              	.LFB75:
  95:startup_stm32f072xb.c **** __weak void SPI1_IRQHandler(void)                      {Default_Handler();}  
 782              		.loc 1 95 56 view -0
 783              		.cfi_startproc
 784              		@ args = 0, pretend = 0, frame = 0
 785              		@ frame_needed = 0, uses_anonymous_args = 0
 786 0000 10B5     		push	{r4, lr}
 787              	.LCFI28:
 788              		.cfi_def_cfa_offset 8
 789              		.cfi_offset 4, -8
 790              		.cfi_offset 14, -4
 791              		.loc 1 95 57 view .LVU81
 792 0002 FFF7FEFF 		bl	Default_Handler
 793              	.LVL37:
 794              		.cfi_endproc
 795              	.LFE75:
 797              		.section	.text.SPI2_IRQHandler,"ax",%progbits
 798              		.align	1
 799              		.weak	SPI2_IRQHandler
 800              		.syntax unified
 801              		.code	16
 802              		.thumb_func
 804              	SPI2_IRQHandler:
 805              	.LFB76:
  96:startup_stm32f072xb.c **** __weak void SPI2_IRQHandler(void)                      {Default_Handler();}  
 806              		.loc 1 96 56 view -0
 807              		.cfi_startproc
 808              		@ args = 0, pretend = 0, frame = 0
 809              		@ frame_needed = 0, uses_anonymous_args = 0
 810 0000 10B5     		push	{r4, lr}
 811              	.LCFI29:
 812              		.cfi_def_cfa_offset 8
 813              		.cfi_offset 4, -8
 814              		.cfi_offset 14, -4
 815              		.loc 1 96 57 view .LVU83
 816 0002 FFF7FEFF 		bl	Default_Handler
ARM GAS  C:\Users\jisu8\AppData\Local\Temp\ccNNEHIe.s 			page 16


 817              	.LVL38:
 818              		.cfi_endproc
 819              	.LFE76:
 821              		.section	.text.USART1_IRQHandler,"ax",%progbits
 822              		.align	1
 823              		.weak	USART1_IRQHandler
 824              		.syntax unified
 825              		.code	16
 826              		.thumb_func
 828              	USART1_IRQHandler:
 829              	.LFB77:
  97:startup_stm32f072xb.c **** __weak void USART1_IRQHandler(void)                    {Default_Handler();}  
 830              		.loc 1 97 56 view -0
 831              		.cfi_startproc
 832              		@ args = 0, pretend = 0, frame = 0
 833              		@ frame_needed = 0, uses_anonymous_args = 0
 834 0000 10B5     		push	{r4, lr}
 835              	.LCFI30:
 836              		.cfi_def_cfa_offset 8
 837              		.cfi_offset 4, -8
 838              		.cfi_offset 14, -4
 839              		.loc 1 97 57 view .LVU85
 840 0002 FFF7FEFF 		bl	Default_Handler
 841              	.LVL39:
 842              		.cfi_endproc
 843              	.LFE77:
 845              		.section	.text.USART2_IRQHandler,"ax",%progbits
 846              		.align	1
 847              		.weak	USART2_IRQHandler
 848              		.syntax unified
 849              		.code	16
 850              		.thumb_func
 852              	USART2_IRQHandler:
 853              	.LFB78:
  98:startup_stm32f072xb.c **** __weak void USART2_IRQHandler(void)                    {Default_Handler();}  
 854              		.loc 1 98 56 view -0
 855              		.cfi_startproc
 856              		@ args = 0, pretend = 0, frame = 0
 857              		@ frame_needed = 0, uses_anonymous_args = 0
 858 0000 10B5     		push	{r4, lr}
 859              	.LCFI31:
 860              		.cfi_def_cfa_offset 8
 861              		.cfi_offset 4, -8
 862              		.cfi_offset 14, -4
 863              		.loc 1 98 57 view .LVU87
 864 0002 FFF7FEFF 		bl	Default_Handler
 865              	.LVL40:
 866              		.cfi_endproc
 867              	.LFE78:
 869              		.section	.text.USART3_4_IRQHandler,"ax",%progbits
 870              		.align	1
 871              		.weak	USART3_4_IRQHandler
 872              		.syntax unified
 873              		.code	16
 874              		.thumb_func
 876              	USART3_4_IRQHandler:
 877              	.LFB79:
ARM GAS  C:\Users\jisu8\AppData\Local\Temp\ccNNEHIe.s 			page 17


  99:startup_stm32f072xb.c **** __weak void USART3_4_IRQHandler(void)                  {Default_Handler();}  
 878              		.loc 1 99 56 view -0
 879              		.cfi_startproc
 880              		@ args = 0, pretend = 0, frame = 0
 881              		@ frame_needed = 0, uses_anonymous_args = 0
 882 0000 10B5     		push	{r4, lr}
 883              	.LCFI32:
 884              		.cfi_def_cfa_offset 8
 885              		.cfi_offset 4, -8
 886              		.cfi_offset 14, -4
 887              		.loc 1 99 57 view .LVU89
 888 0002 FFF7FEFF 		bl	Default_Handler
 889              	.LVL41:
 890              		.cfi_endproc
 891              	.LFE79:
 893              		.section	.text.CEC_CAN_IRQHandler,"ax",%progbits
 894              		.align	1
 895              		.weak	CEC_CAN_IRQHandler
 896              		.syntax unified
 897              		.code	16
 898              		.thumb_func
 900              	CEC_CAN_IRQHandler:
 901              	.LFB80:
 100:startup_stm32f072xb.c **** __weak void CEC_CAN_IRQHandler(void)                   {Default_Handler();}  
 902              		.loc 1 100 56 view -0
 903              		.cfi_startproc
 904              		@ args = 0, pretend = 0, frame = 0
 905              		@ frame_needed = 0, uses_anonymous_args = 0
 906 0000 10B5     		push	{r4, lr}
 907              	.LCFI33:
 908              		.cfi_def_cfa_offset 8
 909              		.cfi_offset 4, -8
 910              		.cfi_offset 14, -4
 911              		.loc 1 100 57 view .LVU91
 912 0002 FFF7FEFF 		bl	Default_Handler
 913              	.LVL42:
 914              		.cfi_endproc
 915              	.LFE80:
 917              		.section	.text.USB_IRQHandler,"ax",%progbits
 918              		.align	1
 919              		.weak	USB_IRQHandler
 920              		.syntax unified
 921              		.code	16
 922              		.thumb_func
 924              	USB_IRQHandler:
 925              	.LFB81:
 101:startup_stm32f072xb.c **** __weak void USB_IRQHandler(void)                       {Default_Handler();}  
 926              		.loc 1 101 56 view -0
 927              		.cfi_startproc
 928              		@ args = 0, pretend = 0, frame = 0
 929              		@ frame_needed = 0, uses_anonymous_args = 0
 930 0000 10B5     		push	{r4, lr}
 931              	.LCFI34:
 932              		.cfi_def_cfa_offset 8
 933              		.cfi_offset 4, -8
 934              		.cfi_offset 14, -4
 935              		.loc 1 101 57 view .LVU93
ARM GAS  C:\Users\jisu8\AppData\Local\Temp\ccNNEHIe.s 			page 18


 936 0002 FFF7FEFF 		bl	Default_Handler
 937              	.LVL43:
 938              		.cfi_endproc
 939              	.LFE81:
 941              		.section	.text.TIM14_Handler,"ax",%progbits
 942              		.align	1
 943              		.global	TIM14_Handler
 944              		.syntax unified
 945              		.code	16
 946              		.thumb_func
 948              	TIM14_Handler:
 949              	.LFB42:
  45:startup_stm32f072xb.c ****     HAL_TIM_IRQHandler(&htim14);
 950              		.loc 1 45 1 view -0
 951              		.cfi_startproc
 952              		@ args = 0, pretend = 0, frame = 0
 953              		@ frame_needed = 0, uses_anonymous_args = 0
 954 0000 10B5     		push	{r4, lr}
 955              	.LCFI35:
 956              		.cfi_def_cfa_offset 8
 957              		.cfi_offset 4, -8
 958              		.cfi_offset 14, -4
  46:startup_stm32f072xb.c **** }
 959              		.loc 1 46 5 view .LVU95
 960 0002 0248     		ldr	r0, .L46
 961 0004 FFF7FEFF 		bl	HAL_TIM_IRQHandler
 962              	.LVL44:
  47:startup_stm32f072xb.c **** 
 963              		.loc 1 47 1 is_stmt 0 view .LVU96
 964              		@ sp needed
 965 0008 10BD     		pop	{r4, pc}
 966              	.L47:
 967 000a C046     		.align	2
 968              	.L46:
 969 000c 00000000 		.word	htim14
 970              		.cfi_endproc
 971              	.LFE42:
 973              		.section	.text.TIM14_IRQHandler,"ax",%progbits
 974              		.align	1
 975              		.weak	TIM14_IRQHandler
 976              		.syntax unified
 977              		.code	16
 978              		.thumb_func
 980              	TIM14_IRQHandler:
 981              	.LFB69:
  89:startup_stm32f072xb.c **** __weak void TIM15_IRQHandler(void)                     {Default_Handler();}  
 982              		.loc 1 89 56 is_stmt 1 view -0
 983              		.cfi_startproc
 984              		@ args = 0, pretend = 0, frame = 0
 985              		@ frame_needed = 0, uses_anonymous_args = 0
 986 0000 10B5     		push	{r4, lr}
 987              	.LCFI36:
 988              		.cfi_def_cfa_offset 8
 989              		.cfi_offset 4, -8
 990              		.cfi_offset 14, -4
  89:startup_stm32f072xb.c **** __weak void TIM15_IRQHandler(void)                     {Default_Handler();}  
 991              		.loc 1 89 57 view .LVU98
ARM GAS  C:\Users\jisu8\AppData\Local\Temp\ccNNEHIe.s 			page 19


 992 0002 FFF7FEFF 		bl	TIM14_Handler
 993              	.LVL45:
  89:startup_stm32f072xb.c **** __weak void TIM15_IRQHandler(void)                     {Default_Handler();}  
 994              		.loc 1 89 73 is_stmt 0 view .LVU99
 995              		@ sp needed
 996 0006 10BD     		pop	{r4, pc}
 997              		.cfi_endproc
 998              	.LFE69:
 1000              		.section	.text.TIM16_Handler,"ax",%progbits
 1001              		.align	1
 1002              		.global	TIM16_Handler
 1003              		.syntax unified
 1004              		.code	16
 1005              		.thumb_func
 1007              	TIM16_Handler:
 1008              	.LFB43:
  50:startup_stm32f072xb.c ****     HAL_TIM_IRQHandler(&htim16);
 1009              		.loc 1 50 1 is_stmt 1 view -0
 1010              		.cfi_startproc
 1011              		@ args = 0, pretend = 0, frame = 0
 1012              		@ frame_needed = 0, uses_anonymous_args = 0
 1013 0000 10B5     		push	{r4, lr}
 1014              	.LCFI37:
 1015              		.cfi_def_cfa_offset 8
 1016              		.cfi_offset 4, -8
 1017              		.cfi_offset 14, -4
  51:startup_stm32f072xb.c **** }
 1018              		.loc 1 51 5 view .LVU101
 1019 0002 0248     		ldr	r0, .L50
 1020 0004 FFF7FEFF 		bl	HAL_TIM_IRQHandler
 1021              	.LVL46:
  52:startup_stm32f072xb.c **** 
 1022              		.loc 1 52 1 is_stmt 0 view .LVU102
 1023              		@ sp needed
 1024 0008 10BD     		pop	{r4, pc}
 1025              	.L51:
 1026 000a C046     		.align	2
 1027              	.L50:
 1028 000c 00000000 		.word	htim16
 1029              		.cfi_endproc
 1030              	.LFE43:
 1032              		.section	.text.TIM16_IRQHandler,"ax",%progbits
 1033              		.align	1
 1034              		.weak	TIM16_IRQHandler
 1035              		.syntax unified
 1036              		.code	16
 1037              		.thumb_func
 1039              	TIM16_IRQHandler:
 1040              	.LFB71:
  91:startup_stm32f072xb.c **** __weak void TIM17_IRQHandler(void)                     {Default_Handler();}  
 1041              		.loc 1 91 56 is_stmt 1 view -0
 1042              		.cfi_startproc
 1043              		@ args = 0, pretend = 0, frame = 0
 1044              		@ frame_needed = 0, uses_anonymous_args = 0
 1045 0000 10B5     		push	{r4, lr}
 1046              	.LCFI38:
 1047              		.cfi_def_cfa_offset 8
ARM GAS  C:\Users\jisu8\AppData\Local\Temp\ccNNEHIe.s 			page 20


 1048              		.cfi_offset 4, -8
 1049              		.cfi_offset 14, -4
  91:startup_stm32f072xb.c **** __weak void TIM17_IRQHandler(void)                     {Default_Handler();}  
 1050              		.loc 1 91 57 view .LVU104
 1051 0002 FFF7FEFF 		bl	TIM16_Handler
 1052              	.LVL47:
  91:startup_stm32f072xb.c **** __weak void TIM17_IRQHandler(void)                     {Default_Handler();}  
 1053              		.loc 1 91 73 is_stmt 0 view .LVU105
 1054              		@ sp needed
 1055 0006 10BD     		pop	{r4, pc}
 1056              		.cfi_endproc
 1057              	.LFE71:
 1059              		.section	.text.SystemTick_Handler,"ax",%progbits
 1060              		.align	1
 1061              		.global	SystemTick_Handler
 1062              		.syntax unified
 1063              		.code	16
 1064              		.thumb_func
 1066              	SystemTick_Handler:
 1067              	.LFB44:
  55:startup_stm32f072xb.c ****     /* USER CODE BEGIN SysTick_IRQn 0 */
 1068              		.loc 1 55 1 is_stmt 1 view -0
 1069              		.cfi_startproc
 1070              		@ args = 0, pretend = 0, frame = 0
 1071              		@ frame_needed = 0, uses_anonymous_args = 0
 1072 0000 10B5     		push	{r4, lr}
 1073              	.LCFI39:
 1074              		.cfi_def_cfa_offset 8
 1075              		.cfi_offset 4, -8
 1076              		.cfi_offset 14, -4
  59:startup_stm32f072xb.c ****     /* USER CODE BEGIN SysTick_IRQn 1 */
 1077              		.loc 1 59 5 view .LVU107
 1078 0002 FFF7FEFF 		bl	HAL_IncTick
 1079              	.LVL48:
  61:startup_stm32f072xb.c ****     /* USER CODE END SysTick_IRQn 1 */
 1080              		.loc 1 61 5 view .LVU108
 1081 0006 FFF7FEFF 		bl	Os_Handler_1ms
 1082              	.LVL49:
  63:startup_stm32f072xb.c **** 
 1083              		.loc 1 63 1 is_stmt 0 view .LVU109
 1084              		@ sp needed
 1085 000a 10BD     		pop	{r4, pc}
 1086              		.cfi_endproc
 1087              	.LFE44:
 1089              		.section	.text.SysTick_Handler,"ax",%progbits
 1090              		.align	1
 1091              		.weak	SysTick_Handler
 1092              		.syntax unified
 1093              		.code	16
 1094              		.thumb_func
 1096              	SysTick_Handler:
 1097              	.LFB49:
  69:startup_stm32f072xb.c **** __weak void WWDG_IRQHandler(void)                      {Default_Handler();}  
 1098              		.loc 1 69 56 is_stmt 1 view -0
 1099              		.cfi_startproc
 1100              		@ args = 0, pretend = 0, frame = 0
 1101              		@ frame_needed = 0, uses_anonymous_args = 0
ARM GAS  C:\Users\jisu8\AppData\Local\Temp\ccNNEHIe.s 			page 21


 1102 0000 10B5     		push	{r4, lr}
 1103              	.LCFI40:
 1104              		.cfi_def_cfa_offset 8
 1105              		.cfi_offset 4, -8
 1106              		.cfi_offset 14, -4
  69:startup_stm32f072xb.c **** __weak void WWDG_IRQHandler(void)                      {Default_Handler();}  
 1107              		.loc 1 69 57 view .LVU111
 1108 0002 FFF7FEFF 		bl	SystemTick_Handler
 1109              	.LVL50:
  69:startup_stm32f072xb.c **** __weak void WWDG_IRQHandler(void)                      {Default_Handler();}  
 1110              		.loc 1 69 78 is_stmt 0 view .LVU112
 1111              		@ sp needed
 1112 0006 10BD     		pop	{r4, pc}
 1113              		.cfi_endproc
 1114              	.LFE49:
 1116              		.global	VectorTable
 1117              		.section	.isr_vector,"aw"
 1118              		.align	2
 1121              	VectorTable:
 1122 0000 00000000 		.word	_estack
 1123 0004 00000000 		.word	Reset_Handler
 1124 0008 00000000 		.word	NMI_Handler
 1125 000c 00000000 		.word	HardFault_Handler
 1126 0010 00000000 		.word	0
 1127 0014 00000000 		.word	0
 1128 0018 00000000 		.word	0
 1129 001c 00000000 		.word	0
 1130 0020 00000000 		.word	0
 1131 0024 00000000 		.word	0
 1132 0028 00000000 		.word	0
 1133 002c 00000000 		.word	SVC_Handler
 1134 0030 00000000 		.word	0
 1135 0034 00000000 		.word	0
 1136 0038 00000000 		.word	PendSV_Handler
 1137 003c 00000000 		.word	SysTick_Handler
 1138 0040 00000000 		.word	WWDG_IRQHandler
 1139 0044 00000000 		.word	PVD_VDDIO2_IRQHandler
 1140 0048 00000000 		.word	RTC_IRQHandler
 1141 004c 00000000 		.word	FLASH_IRQHandler
 1142 0050 00000000 		.word	RCC_CRS_IRQHandler
 1143 0054 00000000 		.word	EXTI0_1_IRQHandler
 1144 0058 00000000 		.word	EXTI2_3_IRQHandler
 1145 005c 00000000 		.word	EXTI4_15_IRQHandler
 1146 0060 00000000 		.word	TSC_IRQHandler
 1147 0064 00000000 		.word	DMA1_Channel1_IRQHandler
 1148 0068 00000000 		.word	DMA1_Channel2_3_IRQHandler
 1149 006c 00000000 		.word	DMA1_Channel4_5_6_7_IRQHandler
 1150 0070 00000000 		.word	ADC1_COMP_IRQHandler
 1151 0074 00000000 		.word	TIM1_BRK_UP_TRG_COM_IRQHandler
 1152 0078 00000000 		.word	TIM1_CC_IRQHandler
 1153 007c 00000000 		.word	TIM2_IRQHandler
 1154 0080 00000000 		.word	TIM3_IRQHandler
 1155 0084 00000000 		.word	TIM6_DAC_IRQHandler
 1156 0088 00000000 		.word	TIM7_IRQHandler
 1157 008c 00000000 		.word	TIM14_IRQHandler
 1158 0090 00000000 		.word	TIM15_IRQHandler
 1159 0094 00000000 		.word	TIM16_IRQHandler
ARM GAS  C:\Users\jisu8\AppData\Local\Temp\ccNNEHIe.s 			page 22


 1160 0098 00000000 		.word	TIM17_IRQHandler
 1161 009c 00000000 		.word	I2C1_IRQHandler
 1162 00a0 00000000 		.word	I2C2_IRQHandler
 1163 00a4 00000000 		.word	SPI1_IRQHandler
 1164 00a8 00000000 		.word	SPI2_IRQHandler
 1165 00ac 00000000 		.word	USART1_IRQHandler
 1166 00b0 00000000 		.word	USART2_IRQHandler
 1167 00b4 00000000 		.word	USART3_4_IRQHandler
 1168 00b8 00000000 		.word	CEC_CAN_IRQHandler
 1169 00bc 00000000 		.word	USB_IRQHandler
 1170              		.text
 1171              	.Letext0:
 1172              		.file 2 "d:\\3.tools\\arm_gcc_toolchain\\arm-none-eabi\\include\\machine\\_default_types.h"
 1173              		.file 3 "d:\\3.tools\\arm_gcc_toolchain\\arm-none-eabi\\include\\sys\\_stdint.h"
 1174              		.file 4 "Drivers/CMSIS/Device/ST/STM32F0xx/Include/stm32f072xb.h"
 1175              		.file 5 "Drivers/STM32F0xx_HAL_Driver/Inc/stm32f0xx_hal_def.h"
 1176              		.file 6 "Drivers/STM32F0xx_HAL_Driver/Inc/stm32f0xx_hal_dma.h"
 1177              		.file 7 "Drivers/STM32F0xx_HAL_Driver/Inc/stm32f0xx_hal_tim.h"
 1178              		.file 8 "Core/Inc/main.h"
 1179              		.file 9 "Drivers/STM32F0xx_HAL_Driver/Inc/stm32f0xx_hal.h"
 1180              		.file 10 "Core/Inc/os.h"
 1181              		.file 11 "Drivers/CMSIS/Device/ST/STM32F0xx/Include/system_stm32f0xx.h"
ARM GAS  C:\Users\jisu8\AppData\Local\Temp\ccNNEHIe.s 			page 23

